
ArduinoIRIGB.elf:     file format elf32-avr

Sections:
Idx Name          Size      VMA       LMA       File off  Algn
  0 .data         00000128  00800100  00003782  00003816  2**0
                  CONTENTS, ALLOC, LOAD, DATA
  1 .text         00003782  00000000  00000000  00000094  2**1
                  CONTENTS, ALLOC, LOAD, READONLY, CODE
  2 .bss          00000114  00800228  00800228  0000393e  2**0
                  ALLOC
  3 .stab         00005c40  00000000  00000000  00003940  2**2
                  CONTENTS, READONLY, DEBUGGING
  4 .stabstr      00004a16  00000000  00000000  00009580  2**0
                  CONTENTS, READONLY, DEBUGGING
  5 .comment      00000011  00000000  00000000  0000df96  2**0
                  CONTENTS, READONLY
  6 .note.gnu.avr.deviceinfo 00000040  00000000  00000000  0000dfa8  2**2
                  CONTENTS, READONLY
  7 .debug_info   000005f4  00000000  00000000  0000dfe8  2**0
                  CONTENTS, READONLY, DEBUGGING
  8 .debug_abbrev 000005a2  00000000  00000000  0000e5dc  2**0
                  CONTENTS, READONLY, DEBUGGING
  9 .debug_line   0000001a  00000000  00000000  0000eb7e  2**0
                  CONTENTS, READONLY, DEBUGGING
 10 .debug_str    00000208  00000000  00000000  0000eb98  2**0
                  CONTENTS, READONLY, DEBUGGING

Disassembly of section .text:

00000000 <__vectors>:
       0:	6b c0       	rjmp	.+214    	; 0xd8 <__ctors_end>
       2:	00 00       	nop
       4:	91 c0       	rjmp	.+290    	; 0x128 <__bad_interrupt>
       6:	00 00       	nop
       8:	8f c0       	rjmp	.+286    	; 0x128 <__bad_interrupt>
       a:	00 00       	nop
       c:	8d c0       	rjmp	.+282    	; 0x128 <__bad_interrupt>
       e:	00 00       	nop
      10:	8b c0       	rjmp	.+278    	; 0x128 <__bad_interrupt>
      12:	00 00       	nop
      14:	89 c0       	rjmp	.+274    	; 0x128 <__bad_interrupt>
      16:	00 00       	nop
      18:	87 c0       	rjmp	.+270    	; 0x128 <__bad_interrupt>
      1a:	00 00       	nop
      1c:	85 c0       	rjmp	.+266    	; 0x128 <__bad_interrupt>
      1e:	00 00       	nop
      20:	83 c0       	rjmp	.+262    	; 0x128 <__bad_interrupt>
      22:	00 00       	nop
      24:	81 c0       	rjmp	.+258    	; 0x128 <__bad_interrupt>
      26:	00 00       	nop
      28:	7f c0       	rjmp	.+254    	; 0x128 <__bad_interrupt>
      2a:	00 00       	nop
      2c:	7d c0       	rjmp	.+250    	; 0x128 <__bad_interrupt>
      2e:	00 00       	nop
      30:	7b c0       	rjmp	.+246    	; 0x128 <__bad_interrupt>
      32:	00 00       	nop
      34:	79 c0       	rjmp	.+242    	; 0x128 <__bad_interrupt>
      36:	00 00       	nop
      38:	77 c0       	rjmp	.+238    	; 0x128 <__bad_interrupt>
      3a:	00 00       	nop
      3c:	75 c0       	rjmp	.+234    	; 0x128 <__bad_interrupt>
      3e:	00 00       	nop
      40:	0c 94 a4 14 	jmp	0x2948	; 0x2948 <__vector_16>
      44:	71 c0       	rjmp	.+226    	; 0x128 <__bad_interrupt>
      46:	00 00       	nop
      48:	0c 94 9d 11 	jmp	0x233a	; 0x233a <__vector_18>
      4c:	0c 94 cf 11 	jmp	0x239e	; 0x239e <__vector_19>
      50:	6b c0       	rjmp	.+214    	; 0x128 <__bad_interrupt>
      52:	00 00       	nop
      54:	69 c0       	rjmp	.+210    	; 0x128 <__bad_interrupt>
      56:	00 00       	nop
      58:	67 c0       	rjmp	.+206    	; 0x128 <__bad_interrupt>
      5a:	00 00       	nop
      5c:	65 c0       	rjmp	.+202    	; 0x128 <__bad_interrupt>
      5e:	00 00       	nop
      60:	63 c0       	rjmp	.+198    	; 0x128 <__bad_interrupt>
      62:	00 00       	nop
      64:	61 c0       	rjmp	.+194    	; 0x128 <__bad_interrupt>
	...

00000068 <__trampolines_end>:
      68:	00 00       	nop
      6a:	00 08       	sbc	r0, r0
      6c:	00 02       	muls	r16, r16
      6e:	01 00       	.word	0x0001	; ????
      70:	00 03       	mulsu	r16, r16
      72:	04 07       	cpc	r16, r20
	...

0000007c <digital_pin_to_bit_mask_PGM>:
      7c:	01 02 04 08 10 20 40 80 01 02 04 08 10 20 01 02     ..... @...... ..
      8c:	04 08 10 20                                         ... 

00000090 <digital_pin_to_port_PGM>:
      90:	04 04 04 04 04 04 04 04 02 02 02 02 02 02 03 03     ................
      a0:	03 03 03 03                                         ....

000000a4 <port_to_input_PGM>:
      a4:	00 00 00 00 23 00 26 00 29 00                       ....#.&.).

000000ae <port_to_output_PGM>:
      ae:	00 00 00 00 25 00 28 00 2b 00                       ....%.(.+.

000000b8 <port_to_mode_PGM>:
      b8:	00 00 00 00 24 00 27 00 2a 00                       ....$.'.*.

000000c2 <__ctors_start>:
      c2:	7c 01       	movw	r14, r24
      c4:	87 01       	movw	r16, r14
      c6:	91 05       	cpc	r25, r1
      c8:	c8 0a       	sbc	r12, r24
      ca:	15 0b       	sbc	r17, r21
      cc:	04 0e       	add	r0, r20
      ce:	10 0e       	add	r1, r16
      d0:	1a 0e       	add	r1, r26
      d2:	6d 10       	cpse	r6, r13
      d4:	fd 11       	cpse	r31, r13
      d6:	9a 12       	cpse	r9, r26

000000d8 <__ctors_end>:
      d8:	11 24       	eor	r1, r1
      da:	1f be       	out	0x3f, r1	; 63
      dc:	cf ef       	ldi	r28, 0xFF	; 255
      de:	d8 e0       	ldi	r29, 0x08	; 8
      e0:	de bf       	out	0x3e, r29	; 62
      e2:	cd bf       	out	0x3d, r28	; 61

000000e4 <__do_copy_data>:
      e4:	12 e0       	ldi	r17, 0x02	; 2
      e6:	a0 e0       	ldi	r26, 0x00	; 0
      e8:	b1 e0       	ldi	r27, 0x01	; 1
      ea:	e2 e8       	ldi	r30, 0x82	; 130
      ec:	f7 e3       	ldi	r31, 0x37	; 55
      ee:	02 c0       	rjmp	.+4      	; 0xf4 <__do_copy_data+0x10>
      f0:	05 90       	lpm	r0, Z+
      f2:	0d 92       	st	X+, r0
      f4:	a8 32       	cpi	r26, 0x28	; 40
      f6:	b1 07       	cpc	r27, r17
      f8:	d9 f7       	brne	.-10     	; 0xf0 <__do_copy_data+0xc>

000000fa <__do_clear_bss>:
      fa:	23 e0       	ldi	r18, 0x03	; 3
      fc:	a8 e2       	ldi	r26, 0x28	; 40
      fe:	b2 e0       	ldi	r27, 0x02	; 2
     100:	01 c0       	rjmp	.+2      	; 0x104 <.do_clear_bss_start>

00000102 <.do_clear_bss_loop>:
     102:	1d 92       	st	X+, r1

00000104 <.do_clear_bss_start>:
     104:	ac 33       	cpi	r26, 0x3C	; 60
     106:	b2 07       	cpc	r27, r18
     108:	e1 f7       	brne	.-8      	; 0x102 <.do_clear_bss_loop>

0000010a <__do_global_ctors>:
     10a:	10 e0       	ldi	r17, 0x00	; 0
     10c:	cc e6       	ldi	r28, 0x6C	; 108
     10e:	d0 e0       	ldi	r29, 0x00	; 0
     110:	04 c0       	rjmp	.+8      	; 0x11a <__do_global_ctors+0x10>
     112:	21 97       	sbiw	r28, 0x01	; 1
     114:	fe 01       	movw	r30, r28
     116:	0e 94 dc 16 	call	0x2db8	; 0x2db8 <__tablejump2__>
     11a:	c1 36       	cpi	r28, 0x61	; 97
     11c:	d1 07       	cpc	r29, r17
     11e:	c9 f7       	brne	.-14     	; 0x112 <__do_global_ctors+0x8>
     120:	0e 94 97 14 	call	0x292e	; 0x292e <main>
     124:	0c 94 bf 1b 	jmp	0x377e	; 0x377e <_exit>

00000128 <__bad_interrupt>:
     128:	6b cf       	rjmp	.-298    	; 0x0 <__vectors>

0000012a <setup>:
     12a:	cf 93       	push	r28
     12c:	df 93       	push	r29
     12e:	26 e0       	ldi	r18, 0x06	; 6
     130:	40 e8       	ldi	r20, 0x80	; 128
     132:	55 e2       	ldi	r21, 0x25	; 37
     134:	60 e0       	ldi	r22, 0x00	; 0
     136:	70 e0       	ldi	r23, 0x00	; 0
     138:	8c e8       	ldi	r24, 0x8C	; 140
     13a:	92 e0       	ldi	r25, 0x02	; 2
     13c:	0e 94 3a 11 	call	0x2274	; 0x2274 <_ZN14HardwareSerial5beginEmh>
     140:	8f e6       	ldi	r24, 0x6F	; 111
     142:	90 e0       	ldi	r25, 0x00	; 0
     144:	0e 94 a3 14 	call	0x2946	; 0x2946 <_Znwj>
     148:	ec 01       	movw	r28, r24
     14a:	62 e0       	ldi	r22, 0x02	; 2
     14c:	70 e0       	ldi	r23, 0x00	; 0
     14e:	c6 d1       	rcall	.+908    	; 0x4dc <_ZN5IRIGBC1Ei>
     150:	d0 93 2d 02 	sts	0x022D, r29	; 0x80022d <irig_boden+0x1>
     154:	c0 93 2c 02 	sts	0x022C, r28	; 0x80022c <irig_boden>
     158:	8f e6       	ldi	r24, 0x6F	; 111
     15a:	90 e0       	ldi	r25, 0x00	; 0
     15c:	0e 94 a3 14 	call	0x2946	; 0x2946 <_Znwj>
     160:	ec 01       	movw	r28, r24
     162:	64 e0       	ldi	r22, 0x04	; 4
     164:	70 e0       	ldi	r23, 0x00	; 0
     166:	ba d1       	rcall	.+884    	; 0x4dc <_ZN5IRIGBC1Ei>
     168:	d0 93 2b 02 	sts	0x022B, r29	; 0x80022b <irig_borlange+0x1>
     16c:	c0 93 2a 02 	sts	0x022A, r28	; 0x80022a <irig_borlange>
     170:	83 e2       	ldi	r24, 0x23	; 35
     172:	90 e0       	ldi	r25, 0x00	; 0
     174:	0e 94 a3 14 	call	0x2946	; 0x2946 <_Znwj>
     178:	ec 01       	movw	r28, r24
     17a:	d4 d0       	rcall	.+424    	; 0x324 <_ZN3NetC1Ev>
     17c:	d0 93 29 02 	sts	0x0229, r29	; 0x800229 <__data_end+0x1>
     180:	c0 93 28 02 	sts	0x0228, r28	; 0x800228 <__data_end>
     184:	df 91       	pop	r29
     186:	cf 91       	pop	r28
     188:	08 95       	ret

0000018a <loop>:
     18a:	cf 93       	push	r28
     18c:	df 93       	push	r29
     18e:	cd b7       	in	r28, 0x3d	; 61
     190:	de b7       	in	r29, 0x3e	; 62
     192:	ee 97       	sbiw	r28, 0x3e	; 62
     194:	0f b6       	in	r0, 0x3f	; 63
     196:	f8 94       	cli
     198:	de bf       	out	0x3e, r29	; 62
     19a:	0f be       	out	0x3f, r0	; 63
     19c:	cd bf       	out	0x3d, r28	; 61
     19e:	60 91 2c 02 	lds	r22, 0x022C	; 0x80022c <irig_boden>
     1a2:	70 91 2d 02 	lds	r23, 0x022D	; 0x80022d <irig_boden+0x1>
     1a6:	ce 01       	movw	r24, r28
     1a8:	4a 96       	adiw	r24, 0x1a	; 26
     1aa:	11 d2       	rcall	.+1058   	; 0x5ce <_ZN5IRIGB13ReadTimeFrameEv>
     1ac:	6c e1       	ldi	r22, 0x1C	; 28
     1ae:	71 e0       	ldi	r23, 0x01	; 1
     1b0:	ce 01       	movw	r24, r28
     1b2:	01 96       	adiw	r24, 0x01	; 1
     1b4:	0e 94 e2 13 	call	0x27c4	; 0x27c4 <_ZN6StringC1EPKc>
     1b8:	be 01       	movw	r22, r28
     1ba:	66 5e       	subi	r22, 0xE6	; 230
     1bc:	7f 4f       	sbci	r23, 0xFF	; 255
     1be:	ce 01       	movw	r24, r28
     1c0:	01 96       	adiw	r24, 0x01	; 1
     1c2:	0e 94 3f 14 	call	0x287e	; 0x287e <_ZplRK15StringSumHelperRK6String>
     1c6:	64 e2       	ldi	r22, 0x24	; 36
     1c8:	71 e0       	ldi	r23, 0x01	; 1
     1ca:	0e 94 50 14 	call	0x28a0	; 0x28a0 <_ZplRK15StringSumHelperPKc>
     1ce:	bc 01       	movw	r22, r24
     1d0:	ce 01       	movw	r24, r28
     1d2:	c9 96       	adiw	r24, 0x39	; 57
     1d4:	0e 94 0b 14 	call	0x2816	; 0x2816 <_ZN6StringC1ERKS_>
     1d8:	ce 01       	movw	r24, r28
     1da:	01 96       	adiw	r24, 0x01	; 1
     1dc:	0e 94 7b 13 	call	0x26f6	; 0x26f6 <_ZN6StringD1Ev>
     1e0:	ce 01       	movw	r24, r28
     1e2:	4a 96       	adiw	r24, 0x1a	; 26
     1e4:	0e 94 7b 13 	call	0x26f6	; 0x26f6 <_ZN6StringD1Ev>
     1e8:	60 91 2a 02 	lds	r22, 0x022A	; 0x80022a <irig_borlange>
     1ec:	70 91 2b 02 	lds	r23, 0x022B	; 0x80022b <irig_borlange+0x1>
     1f0:	ce 01       	movw	r24, r28
     1f2:	4a 96       	adiw	r24, 0x1a	; 26
     1f4:	ec d1       	rcall	.+984    	; 0x5ce <_ZN5IRIGB13ReadTimeFrameEv>
     1f6:	61 e2       	ldi	r22, 0x21	; 33
     1f8:	71 e0       	ldi	r23, 0x01	; 1
     1fa:	ce 01       	movw	r24, r28
     1fc:	01 96       	adiw	r24, 0x01	; 1
     1fe:	0e 94 e2 13 	call	0x27c4	; 0x27c4 <_ZN6StringC1EPKc>
     202:	be 01       	movw	r22, r28
     204:	66 5e       	subi	r22, 0xE6	; 230
     206:	7f 4f       	sbci	r23, 0xFF	; 255
     208:	ce 01       	movw	r24, r28
     20a:	01 96       	adiw	r24, 0x01	; 1
     20c:	0e 94 3f 14 	call	0x287e	; 0x287e <_ZplRK15StringSumHelperRK6String>
     210:	64 e2       	ldi	r22, 0x24	; 36
     212:	71 e0       	ldi	r23, 0x01	; 1
     214:	0e 94 50 14 	call	0x28a0	; 0x28a0 <_ZplRK15StringSumHelperPKc>
     218:	bc 01       	movw	r22, r24
     21a:	ce 01       	movw	r24, r28
     21c:	c3 96       	adiw	r24, 0x33	; 51
     21e:	0e 94 0b 14 	call	0x2816	; 0x2816 <_ZN6StringC1ERKS_>
     222:	ce 01       	movw	r24, r28
     224:	01 96       	adiw	r24, 0x01	; 1
     226:	0e 94 7b 13 	call	0x26f6	; 0x26f6 <_ZN6StringD1Ev>
     22a:	ce 01       	movw	r24, r28
     22c:	4a 96       	adiw	r24, 0x1a	; 26
     22e:	0e 94 7b 13 	call	0x26f6	; 0x26f6 <_ZN6StringD1Ev>
     232:	66 e2       	ldi	r22, 0x26	; 38
     234:	71 e0       	ldi	r23, 0x01	; 1
     236:	ce 01       	movw	r24, r28
     238:	01 96       	adiw	r24, 0x01	; 1
     23a:	0e 94 e2 13 	call	0x27c4	; 0x27c4 <_ZN6StringC1EPKc>
     23e:	be 01       	movw	r22, r28
     240:	67 5c       	subi	r22, 0xC7	; 199
     242:	7f 4f       	sbci	r23, 0xFF	; 255
     244:	ce 01       	movw	r24, r28
     246:	01 96       	adiw	r24, 0x01	; 1
     248:	0e 94 3f 14 	call	0x287e	; 0x287e <_ZplRK15StringSumHelperRK6String>
     24c:	bc 01       	movw	r22, r24
     24e:	8c e8       	ldi	r24, 0x8C	; 140
     250:	92 e0       	ldi	r25, 0x02	; 2
     252:	0e 94 fd 12 	call	0x25fa	; 0x25fa <_ZN5Print7printlnERK6String>
     256:	ce 01       	movw	r24, r28
     258:	01 96       	adiw	r24, 0x01	; 1
     25a:	0e 94 7b 13 	call	0x26f6	; 0x26f6 <_ZN6StringD1Ev>
     25e:	6c e2       	ldi	r22, 0x2C	; 44
     260:	71 e0       	ldi	r23, 0x01	; 1
     262:	ce 01       	movw	r24, r28
     264:	01 96       	adiw	r24, 0x01	; 1
     266:	0e 94 e2 13 	call	0x27c4	; 0x27c4 <_ZN6StringC1EPKc>
     26a:	be 01       	movw	r22, r28
     26c:	6d 5c       	subi	r22, 0xCD	; 205
     26e:	7f 4f       	sbci	r23, 0xFF	; 255
     270:	ce 01       	movw	r24, r28
     272:	01 96       	adiw	r24, 0x01	; 1
     274:	0e 94 3f 14 	call	0x287e	; 0x287e <_ZplRK15StringSumHelperRK6String>
     278:	bc 01       	movw	r22, r24
     27a:	8c e8       	ldi	r24, 0x8C	; 140
     27c:	92 e0       	ldi	r25, 0x02	; 2
     27e:	0e 94 fd 12 	call	0x25fa	; 0x25fa <_ZN5Print7printlnERK6String>
     282:	ce 01       	movw	r24, r28
     284:	01 96       	adiw	r24, 0x01	; 1
     286:	0e 94 7b 13 	call	0x26f6	; 0x26f6 <_ZN6StringD1Ev>
     28a:	20 e0       	ldi	r18, 0x00	; 0
     28c:	30 e0       	ldi	r19, 0x00	; 0
     28e:	49 e1       	ldi	r20, 0x19	; 25
     290:	50 e0       	ldi	r21, 0x00	; 0
     292:	be 01       	movw	r22, r28
     294:	66 5e       	subi	r22, 0xE6	; 230
     296:	7f 4f       	sbci	r23, 0xFF	; 255
     298:	ce 01       	movw	r24, r28
     29a:	c9 96       	adiw	r24, 0x39	; 57
     29c:	0e 94 67 14 	call	0x28ce	; 0x28ce <_ZNK6String8getBytesEPhjj>
     2a0:	20 e0       	ldi	r18, 0x00	; 0
     2a2:	30 e0       	ldi	r19, 0x00	; 0
     2a4:	49 e1       	ldi	r20, 0x19	; 25
     2a6:	50 e0       	ldi	r21, 0x00	; 0
     2a8:	be 01       	movw	r22, r28
     2aa:	6f 5f       	subi	r22, 0xFF	; 255
     2ac:	7f 4f       	sbci	r23, 0xFF	; 255
     2ae:	ce 01       	movw	r24, r28
     2b0:	c3 96       	adiw	r24, 0x33	; 51
     2b2:	0e 94 67 14 	call	0x28ce	; 0x28ce <_ZNK6String8getBytesEPhjj>
     2b6:	be 01       	movw	r22, r28
     2b8:	66 5e       	subi	r22, 0xE6	; 230
     2ba:	7f 4f       	sbci	r23, 0xFF	; 255
     2bc:	80 91 28 02 	lds	r24, 0x0228	; 0x800228 <__data_end>
     2c0:	90 91 29 02 	lds	r25, 0x0229	; 0x800229 <__data_end+0x1>
     2c4:	c1 d0       	rcall	.+386    	; 0x448 <_ZN3Net4SendEPKc>
     2c6:	be 01       	movw	r22, r28
     2c8:	6f 5f       	subi	r22, 0xFF	; 255
     2ca:	7f 4f       	sbci	r23, 0xFF	; 255
     2cc:	80 91 28 02 	lds	r24, 0x0228	; 0x800228 <__data_end>
     2d0:	90 91 29 02 	lds	r25, 0x0229	; 0x800229 <__data_end+0x1>
     2d4:	b9 d0       	rcall	.+370    	; 0x448 <_ZN3Net4SendEPKc>
     2d6:	ce 01       	movw	r24, r28
     2d8:	c3 96       	adiw	r24, 0x33	; 51
     2da:	0e 94 7b 13 	call	0x26f6	; 0x26f6 <_ZN6StringD1Ev>
     2de:	ce 01       	movw	r24, r28
     2e0:	c9 96       	adiw	r24, 0x39	; 57
     2e2:	0e 94 7b 13 	call	0x26f6	; 0x26f6 <_ZN6StringD1Ev>
     2e6:	ee 96       	adiw	r28, 0x3e	; 62
     2e8:	0f b6       	in	r0, 0x3f	; 63
     2ea:	f8 94       	cli
     2ec:	de bf       	out	0x3e, r29	; 62
     2ee:	0f be       	out	0x3f, r0	; 63
     2f0:	cd bf       	out	0x3d, r28	; 61
     2f2:	df 91       	pop	r29
     2f4:	cf 91       	pop	r28
     2f6:	08 95       	ret

000002f8 <_GLOBAL__sub_I_irig_boden>:
     2f8:	0f 93       	push	r16
     2fa:	00 e0       	ldi	r16, 0x00	; 0
     2fc:	20 e0       	ldi	r18, 0x00	; 0
     2fe:	40 e0       	ldi	r20, 0x00	; 0
     300:	60 e0       	ldi	r22, 0x00	; 0
     302:	8e e2       	ldi	r24, 0x2E	; 46
     304:	92 e0       	ldi	r25, 0x02	; 2
     306:	0e 94 73 12 	call	0x24e6	; 0x24e6 <_ZN9IPAddressC1Ehhhh>
     30a:	0f 91       	pop	r16
     30c:	08 95       	ret

0000030e <_GLOBAL__sub_I__ZN3NetC2Ev>:
     30e:	0f 93       	push	r16
     310:	00 e0       	ldi	r16, 0x00	; 0
     312:	20 e0       	ldi	r18, 0x00	; 0
     314:	40 e0       	ldi	r20, 0x00	; 0
     316:	60 e0       	ldi	r22, 0x00	; 0
     318:	84 e3       	ldi	r24, 0x34	; 52
     31a:	92 e0       	ldi	r25, 0x02	; 2
     31c:	0e 94 73 12 	call	0x24e6	; 0x24e6 <_ZN9IPAddressC1Ehhhh>
     320:	0f 91       	pop	r16
     322:	08 95       	ret

00000324 <_ZN3NetC1Ev>:
     324:	cf 92       	push	r12
     326:	df 92       	push	r13
     328:	ef 92       	push	r14
     32a:	ff 92       	push	r15
     32c:	0f 93       	push	r16
     32e:	1f 93       	push	r17
     330:	cf 93       	push	r28
     332:	df 93       	push	r29
     334:	cd b7       	in	r28, 0x3d	; 61
     336:	de b7       	in	r29, 0x3e	; 62
     338:	ae 97       	sbiw	r28, 0x2e	; 46
     33a:	0f b6       	in	r0, 0x3f	; 63
     33c:	f8 94       	cli
     33e:	de bf       	out	0x3e, r29	; 62
     340:	0f be       	out	0x3f, r0	; 63
     342:	cd bf       	out	0x3d, r28	; 61
     344:	6c 01       	movw	r12, r24
     346:	0e 94 fc 0f 	call	0x1ff8	; 0x1ff8 <_ZN11EthernetUDPC1Ev>
     34a:	c6 01       	movw	r24, r12
     34c:	4b 96       	adiw	r24, 0x1b	; 27
     34e:	0e 94 69 12 	call	0x24d2	; 0x24d2 <_ZN9IPAddressC1Ev>
     352:	be 01       	movw	r22, r28
     354:	65 5d       	subi	r22, 0xD5	; 213
     356:	7f 4f       	sbci	r23, 0xFF	; 255
     358:	8e e3       	ldi	r24, 0x3E	; 62
     35a:	92 e0       	ldi	r25, 0x02	; 2
     35c:	c2 d3       	rcall	.+1924   	; 0xae2 <_ZN9NetEEPROM6readIpEPh>
     35e:	be 01       	movw	r22, r28
     360:	69 5d       	subi	r22, 0xD9	; 217
     362:	7f 4f       	sbci	r23, 0xFF	; 255
     364:	8e e3       	ldi	r24, 0x3E	; 62
     366:	92 e0       	ldi	r25, 0x02	; 2
     368:	d4 d3       	rcall	.+1960   	; 0xb12 <_ZN9NetEEPROM10readSubnetEPh>
     36a:	be 01       	movw	r22, r28
     36c:	6d 5d       	subi	r22, 0xDD	; 221
     36e:	7f 4f       	sbci	r23, 0xFF	; 255
     370:	8e e3       	ldi	r24, 0x3E	; 62
     372:	92 e0       	ldi	r25, 0x02	; 2
     374:	c6 d3       	rcall	.+1932   	; 0xb02 <_ZN9NetEEPROM11readGatewayEPh>
     376:	be 01       	movw	r22, r28
     378:	67 5e       	subi	r22, 0xE7	; 231
     37a:	7f 4f       	sbci	r23, 0xFF	; 255
     37c:	8e e3       	ldi	r24, 0x3E	; 62
     37e:	92 e0       	ldi	r25, 0x02	; 2
     380:	a8 d3       	rcall	.+1872   	; 0xad2 <_ZN9NetEEPROM7readMacEPh>
     382:	be 01       	movw	r22, r28
     384:	61 5e       	subi	r22, 0xE1	; 225
     386:	7f 4f       	sbci	r23, 0xFF	; 255
     388:	8e e3       	ldi	r24, 0x3E	; 62
     38a:	92 e0       	ldi	r25, 0x02	; 2
     38c:	b2 d3       	rcall	.+1892   	; 0xaf2 <_ZN9NetEEPROM7readDnsEPh>
     38e:	be 01       	movw	r22, r28
     390:	69 5d       	subi	r22, 0xD9	; 217
     392:	7f 4f       	sbci	r23, 0xFF	; 255
     394:	ce 01       	movw	r24, r28
     396:	01 96       	adiw	r24, 0x01	; 1
     398:	0e 94 7f 12 	call	0x24fe	; 0x24fe <_ZN9IPAddressC1EPKh>
     39c:	be 01       	movw	r22, r28
     39e:	6d 5d       	subi	r22, 0xDD	; 221
     3a0:	7f 4f       	sbci	r23, 0xFF	; 255
     3a2:	ce 01       	movw	r24, r28
     3a4:	07 96       	adiw	r24, 0x07	; 7
     3a6:	0e 94 7f 12 	call	0x24fe	; 0x24fe <_ZN9IPAddressC1EPKh>
     3aa:	be 01       	movw	r22, r28
     3ac:	61 5e       	subi	r22, 0xE1	; 225
     3ae:	7f 4f       	sbci	r23, 0xFF	; 255
     3b0:	ce 01       	movw	r24, r28
     3b2:	0d 96       	adiw	r24, 0x0d	; 13
     3b4:	0e 94 7f 12 	call	0x24fe	; 0x24fe <_ZN9IPAddressC1EPKh>
     3b8:	be 01       	movw	r22, r28
     3ba:	65 5d       	subi	r22, 0xD5	; 213
     3bc:	7f 4f       	sbci	r23, 0xFF	; 255
     3be:	ce 01       	movw	r24, r28
     3c0:	43 96       	adiw	r24, 0x13	; 19
     3c2:	0e 94 7f 12 	call	0x24fe	; 0x24fe <_ZN9IPAddressC1EPKh>
     3c6:	ce 01       	movw	r24, r28
     3c8:	01 96       	adiw	r24, 0x01	; 1
     3ca:	7c 01       	movw	r14, r24
     3cc:	8e 01       	movw	r16, r28
     3ce:	09 5f       	subi	r16, 0xF9	; 249
     3d0:	1f 4f       	sbci	r17, 0xFF	; 255
     3d2:	9e 01       	movw	r18, r28
     3d4:	23 5f       	subi	r18, 0xF3	; 243
     3d6:	3f 4f       	sbci	r19, 0xFF	; 255
     3d8:	ae 01       	movw	r20, r28
     3da:	4d 5e       	subi	r20, 0xED	; 237
     3dc:	5f 4f       	sbci	r21, 0xFF	; 255
     3de:	be 01       	movw	r22, r28
     3e0:	67 5e       	subi	r22, 0xE7	; 231
     3e2:	7f 4f       	sbci	r23, 0xFF	; 255
     3e4:	84 e6       	ldi	r24, 0x64	; 100
     3e6:	92 e0       	ldi	r25, 0x02	; 2
     3e8:	0e 94 af 0d 	call	0x1b5e	; 0x1b5e <_ZN13EthernetClass5beginEPh9IPAddressS1_S1_S1_>
     3ec:	01 ef       	ldi	r16, 0xF1	; 241
     3ee:	21 e0       	ldi	r18, 0x01	; 1
     3f0:	48 e0       	ldi	r20, 0x08	; 8
     3f2:	6a e0       	ldi	r22, 0x0A	; 10
     3f4:	c7 01       	movw	r24, r14
     3f6:	0e 94 73 12 	call	0x24e6	; 0x24e6 <_ZN9IPAddressC1Ehhhh>
     3fa:	8b 81       	ldd	r24, Y+3	; 0x03
     3fc:	9c 81       	ldd	r25, Y+4	; 0x04
     3fe:	ad 81       	ldd	r26, Y+5	; 0x05
     400:	be 81       	ldd	r27, Y+6	; 0x06
     402:	f6 01       	movw	r30, r12
     404:	85 8f       	std	Z+29, r24	; 0x1d
     406:	96 8f       	std	Z+30, r25	; 0x1e
     408:	a7 8f       	std	Z+31, r26	; 0x1f
     40a:	b0 a3       	std	Z+32, r27	; 0x20
     40c:	83 eb       	ldi	r24, 0xB3	; 179
     40e:	95 e1       	ldi	r25, 0x15	; 21
     410:	92 a3       	std	Z+34, r25	; 0x22
     412:	81 a3       	std	Z+33, r24	; 0x21
     414:	63 eb       	ldi	r22, 0xB3	; 179
     416:	75 e1       	ldi	r23, 0x15	; 21
     418:	c6 01       	movw	r24, r12
     41a:	0e 94 eb 0e 	call	0x1dd6	; 0x1dd6 <_ZN11EthernetUDP5beginEj>
     41e:	62 e3       	ldi	r22, 0x32	; 50
     420:	71 e0       	ldi	r23, 0x01	; 1
     422:	8c e8       	ldi	r24, 0x8C	; 140
     424:	92 e0       	ldi	r25, 0x02	; 2
     426:	0e 94 0d 13 	call	0x261a	; 0x261a <_ZN5Print7printlnEPKc>
     42a:	ae 96       	adiw	r28, 0x2e	; 46
     42c:	0f b6       	in	r0, 0x3f	; 63
     42e:	f8 94       	cli
     430:	de bf       	out	0x3e, r29	; 62
     432:	0f be       	out	0x3f, r0	; 63
     434:	cd bf       	out	0x3d, r28	; 61
     436:	df 91       	pop	r29
     438:	cf 91       	pop	r28
     43a:	1f 91       	pop	r17
     43c:	0f 91       	pop	r16
     43e:	ff 90       	pop	r15
     440:	ef 90       	pop	r14
     442:	df 90       	pop	r13
     444:	cf 90       	pop	r12
     446:	08 95       	ret

00000448 <_ZN3Net4SendEPKc>:
     448:	ef 92       	push	r14
     44a:	ff 92       	push	r15
     44c:	0f 93       	push	r16
     44e:	1f 93       	push	r17
     450:	cf 93       	push	r28
     452:	df 93       	push	r29
     454:	00 d0       	rcall	.+0      	; 0x456 <_ZN3Net4SendEPKc+0xe>
     456:	00 d0       	rcall	.+0      	; 0x458 <_ZN3Net4SendEPKc+0x10>
     458:	00 d0       	rcall	.+0      	; 0x45a <_ZN3Net4SendEPKc+0x12>
     45a:	cd b7       	in	r28, 0x3d	; 61
     45c:	de b7       	in	r29, 0x3e	; 62
     45e:	8c 01       	movw	r16, r24
     460:	7b 01       	movw	r14, r22
     462:	fc 01       	movw	r30, r24
     464:	41 a1       	ldd	r20, Z+33	; 0x21
     466:	52 a1       	ldd	r21, Z+34	; 0x22
     468:	87 e1       	ldi	r24, 0x17	; 23
     46a:	92 e0       	ldi	r25, 0x02	; 2
     46c:	9a 83       	std	Y+2, r25	; 0x02
     46e:	89 83       	std	Y+1, r24	; 0x01
     470:	85 8d       	ldd	r24, Z+29	; 0x1d
     472:	96 8d       	ldd	r25, Z+30	; 0x1e
     474:	a7 8d       	ldd	r26, Z+31	; 0x1f
     476:	b0 a1       	ldd	r27, Z+32	; 0x20
     478:	8b 83       	std	Y+3, r24	; 0x03
     47a:	9c 83       	std	Y+4, r25	; 0x04
     47c:	ad 83       	std	Y+5, r26	; 0x05
     47e:	be 83       	std	Y+6, r27	; 0x06
     480:	be 01       	movw	r22, r28
     482:	6f 5f       	subi	r22, 0xFF	; 255
     484:	7f 4f       	sbci	r23, 0xFF	; 255
     486:	c8 01       	movw	r24, r16
     488:	0e 94 6f 0e 	call	0x1cde	; 0x1cde <_ZN11EthernetUDP11beginPacketE9IPAddressj>
     48c:	e1 14       	cp	r14, r1
     48e:	f1 04       	cpc	r15, r1
     490:	61 f0       	breq	.+24     	; 0x4aa <_ZN3Net4SendEPKc+0x62>
     492:	f7 01       	movw	r30, r14
     494:	01 90       	ld	r0, Z+
     496:	00 20       	and	r0, r0
     498:	e9 f7       	brne	.-6      	; 0x494 <_ZN3Net4SendEPKc+0x4c>
     49a:	31 97       	sbiw	r30, 0x01	; 1
     49c:	af 01       	movw	r20, r30
     49e:	4e 19       	sub	r20, r14
     4a0:	5f 09       	sbc	r21, r15
     4a2:	b7 01       	movw	r22, r14
     4a4:	c8 01       	movw	r24, r16
     4a6:	0e 94 79 0e 	call	0x1cf2	; 0x1cf2 <_ZN11EthernetUDP5writeEPKhj>
     4aa:	c8 01       	movw	r24, r16
     4ac:	0e 94 76 0e 	call	0x1cec	; 0x1cec <_ZN11EthernetUDP9endPacketEv>
     4b0:	26 96       	adiw	r28, 0x06	; 6
     4b2:	0f b6       	in	r0, 0x3f	; 63
     4b4:	f8 94       	cli
     4b6:	de bf       	out	0x3e, r29	; 62
     4b8:	0f be       	out	0x3f, r0	; 63
     4ba:	cd bf       	out	0x3d, r28	; 61
     4bc:	df 91       	pop	r29
     4be:	cf 91       	pop	r28
     4c0:	1f 91       	pop	r17
     4c2:	0f 91       	pop	r16
     4c4:	ff 90       	pop	r15
     4c6:	ef 90       	pop	r14
     4c8:	08 95       	ret

000004ca <_ZN5IRIGB5ResetEv>:
     4ca:	fc 01       	movw	r30, r24
     4cc:	12 82       	std	Z+2, r1	; 0x02
     4ce:	13 82       	std	Z+3, r1	; 0x03
     4d0:	14 82       	std	Z+4, r1	; 0x04
     4d2:	12 86       	std	Z+10, r1	; 0x0a
     4d4:	11 86       	std	Z+9, r1	; 0x09
     4d6:	10 86       	std	Z+8, r1	; 0x08
     4d8:	17 82       	std	Z+7, r1	; 0x07
     4da:	08 95       	ret

000004dc <_ZN5IRIGBC1Ei>:
     4dc:	ef 92       	push	r14
     4de:	ff 92       	push	r15
     4e0:	1f 93       	push	r17
     4e2:	cf 93       	push	r28
     4e4:	df 93       	push	r29
     4e6:	1f 92       	push	r1
     4e8:	cd b7       	in	r28, 0x3d	; 61
     4ea:	de b7       	in	r29, 0x3e	; 62
     4ec:	7c 01       	movw	r14, r24
     4ee:	16 2f       	mov	r17, r22
     4f0:	60 e0       	ldi	r22, 0x00	; 0
     4f2:	81 2f       	mov	r24, r17
     4f4:	79 83       	std	Y+1, r23	; 0x01
     4f6:	0e 94 bc 15 	call	0x2b78	; 0x2b78 <pinMode>
     4fa:	f7 01       	movw	r30, r14
     4fc:	10 83       	st	Z, r17
     4fe:	79 81       	ldd	r23, Y+1	; 0x01
     500:	71 83       	std	Z+1, r23	; 0x01
     502:	e7 59       	subi	r30, 0x97	; 151
     504:	ff 4f       	sbci	r31, 0xFF	; 255
     506:	88 ec       	ldi	r24, 0xC8	; 200
     508:	90 e0       	ldi	r25, 0x00	; 0
     50a:	91 83       	std	Z+1, r25	; 0x01
     50c:	80 83       	st	Z, r24
     50e:	32 96       	adiw	r30, 0x02	; 2
     510:	80 e9       	ldi	r24, 0x90	; 144
     512:	90 ed       	ldi	r25, 0xD0	; 208
     514:	91 83       	std	Z+1, r25	; 0x01
     516:	80 83       	st	Z, r24
     518:	f7 01       	movw	r30, r14
     51a:	16 86       	std	Z+14, r1	; 0x0e
     51c:	15 86       	std	Z+13, r1	; 0x0d
     51e:	14 86       	std	Z+12, r1	; 0x0c
     520:	13 86       	std	Z+11, r1	; 0x0b
     522:	c7 01       	movw	r24, r14
     524:	0f 90       	pop	r0
     526:	df 91       	pop	r29
     528:	cf 91       	pop	r28
     52a:	1f 91       	pop	r17
     52c:	ff 90       	pop	r15
     52e:	ef 90       	pop	r14
     530:	cc cf       	rjmp	.-104    	; 0x4ca <_ZN5IRIGB5ResetEv>

00000532 <_ZN5IRIGB7ReadBitEv>:
     532:	cf 93       	push	r28
     534:	df 93       	push	r29
     536:	ec 01       	movw	r28, r24
     538:	fc 01       	movw	r30, r24
     53a:	e5 59       	subi	r30, 0x95	; 149
     53c:	ff 4f       	sbci	r31, 0xFF	; 255
     53e:	20 81       	ld	r18, Z
     540:	31 81       	ldd	r19, Z+1	; 0x01
     542:	40 e0       	ldi	r20, 0x00	; 0
     544:	50 e0       	ldi	r21, 0x00	; 0
     546:	61 e0       	ldi	r22, 0x01	; 1
     548:	88 81       	ld	r24, Y
     54a:	0e 94 27 16 	call	0x2c4e	; 0x2c4e <pulseInLong>
     54e:	9b 01       	movw	r18, r22
     550:	fe 01       	movw	r30, r28
     552:	e3 59       	subi	r30, 0x93	; 147
     554:	ff 4f       	sbci	r31, 0xFF	; 255
     556:	71 83       	std	Z+1, r23	; 0x01
     558:	60 83       	st	Z, r22
     55a:	67 2b       	or	r22, r23
     55c:	91 f0       	breq	.+36     	; 0x582 <_ZN5IRIGB7ReadBitEv+0x50>
     55e:	c7 59       	subi	r28, 0x97	; 151
     560:	df 4f       	sbci	r29, 0xFF	; 255
     562:	88 81       	ld	r24, Y
     564:	99 81       	ldd	r25, Y+1	; 0x01
     566:	ac 01       	movw	r20, r24
     568:	40 53       	subi	r20, 0x30	; 48
     56a:	58 4f       	sbci	r21, 0xF8	; 248
     56c:	42 17       	cp	r20, r18
     56e:	53 07       	cpc	r21, r19
     570:	58 f4       	brcc	.+22     	; 0x588 <_ZN5IRIGB7ReadBitEv+0x56>
     572:	88 57       	subi	r24, 0x78	; 120
     574:	9c 4e       	sbci	r25, 0xEC	; 236
     576:	82 17       	cp	r24, r18
     578:	93 07       	cpc	r25, r19
     57a:	48 f4       	brcc	.+18     	; 0x58e <_ZN5IRIGB7ReadBitEv+0x5c>
     57c:	82 e0       	ldi	r24, 0x02	; 2
     57e:	90 e0       	ldi	r25, 0x00	; 0
     580:	08 c0       	rjmp	.+16     	; 0x592 <_ZN5IRIGB7ReadBitEv+0x60>
     582:	8f ef       	ldi	r24, 0xFF	; 255
     584:	9f ef       	ldi	r25, 0xFF	; 255
     586:	05 c0       	rjmp	.+10     	; 0x592 <_ZN5IRIGB7ReadBitEv+0x60>
     588:	80 e0       	ldi	r24, 0x00	; 0
     58a:	90 e0       	ldi	r25, 0x00	; 0
     58c:	02 c0       	rjmp	.+4      	; 0x592 <_ZN5IRIGB7ReadBitEv+0x60>
     58e:	81 e0       	ldi	r24, 0x01	; 1
     590:	90 e0       	ldi	r25, 0x00	; 0
     592:	df 91       	pop	r29
     594:	cf 91       	pop	r28
     596:	08 95       	ret

00000598 <_ZN5IRIGB16WaitForReferenceEv>:
     598:	0f 93       	push	r16
     59a:	1f 93       	push	r17
     59c:	cf 93       	push	r28
     59e:	df 93       	push	r29
     5a0:	8c 01       	movw	r16, r24
     5a2:	cf ef       	ldi	r28, 0xFF	; 255
     5a4:	df ef       	ldi	r29, 0xFF	; 255
     5a6:	c8 01       	movw	r24, r16
     5a8:	c4 df       	rcall	.-120    	; 0x532 <_ZN5IRIGB7ReadBitEv>
     5aa:	22 97       	sbiw	r28, 0x02	; 2
     5ac:	19 f4       	brne	.+6      	; 0x5b4 <_ZN5IRIGB16WaitForReferenceEv+0x1c>
     5ae:	82 30       	cpi	r24, 0x02	; 2
     5b0:	91 05       	cpc	r25, r1
     5b2:	39 f0       	breq	.+14     	; 0x5c2 <_ZN5IRIGB16WaitForReferenceEv+0x2a>
     5b4:	ec 01       	movw	r28, r24
     5b6:	cf 3f       	cpi	r28, 0xFF	; 255
     5b8:	8f ef       	ldi	r24, 0xFF	; 255
     5ba:	d8 07       	cpc	r29, r24
     5bc:	a1 f7       	brne	.-24     	; 0x5a6 <_ZN5IRIGB16WaitForReferenceEv+0xe>
     5be:	80 e0       	ldi	r24, 0x00	; 0
     5c0:	01 c0       	rjmp	.+2      	; 0x5c4 <_ZN5IRIGB16WaitForReferenceEv+0x2c>
     5c2:	81 e0       	ldi	r24, 0x01	; 1
     5c4:	df 91       	pop	r29
     5c6:	cf 91       	pop	r28
     5c8:	1f 91       	pop	r17
     5ca:	0f 91       	pop	r16
     5cc:	08 95       	ret

000005ce <_ZN5IRIGB13ReadTimeFrameEv>:
     5ce:	6f 92       	push	r6
     5d0:	7f 92       	push	r7
     5d2:	8f 92       	push	r8
     5d4:	9f 92       	push	r9
     5d6:	af 92       	push	r10
     5d8:	bf 92       	push	r11
     5da:	cf 92       	push	r12
     5dc:	df 92       	push	r13
     5de:	ef 92       	push	r14
     5e0:	ff 92       	push	r15
     5e2:	0f 93       	push	r16
     5e4:	1f 93       	push	r17
     5e6:	cf 93       	push	r28
     5e8:	df 93       	push	r29
     5ea:	cd b7       	in	r28, 0x3d	; 61
     5ec:	de b7       	in	r29, 0x3e	; 62
     5ee:	ca 5a       	subi	r28, 0xAA	; 170
     5f0:	d1 09       	sbc	r29, r1
     5f2:	0f b6       	in	r0, 0x3f	; 63
     5f4:	f8 94       	cli
     5f6:	de bf       	out	0x3e, r29	; 62
     5f8:	0f be       	out	0x3f, r0	; 63
     5fa:	cd bf       	out	0x3d, r28	; 61
     5fc:	6c 01       	movw	r12, r24
     5fe:	7b 01       	movw	r14, r22
     600:	5e 01       	movw	r10, r28
     602:	2f e9       	ldi	r18, 0x9F	; 159
     604:	a2 0e       	add	r10, r18
     606:	b1 1c       	adc	r11, r1
     608:	8c e0       	ldi	r24, 0x0C	; 12
     60a:	ea e0       	ldi	r30, 0x0A	; 10
     60c:	f1 e0       	ldi	r31, 0x01	; 1
     60e:	d5 01       	movw	r26, r10
     610:	01 90       	ld	r0, Z+
     612:	0d 92       	st	X+, r0
     614:	8a 95       	dec	r24
     616:	e1 f7       	brne	.-8      	; 0x610 <_ZN5IRIGB13ReadTimeFrameEv+0x42>
     618:	cb 01       	movw	r24, r22
     61a:	57 df       	rcall	.-338    	; 0x4ca <_ZN5IRIGB5ResetEv>
     61c:	c7 01       	movw	r24, r14
     61e:	bc df       	rcall	.-136    	; 0x598 <_ZN5IRIGB16WaitForReferenceEv>
     620:	4e 01       	movw	r8, r28
     622:	80 e5       	ldi	r24, 0x50	; 80
     624:	88 0e       	add	r8, r24
     626:	91 1c       	adc	r9, r1
     628:	34 01       	movw	r6, r8
     62a:	98 e0       	ldi	r25, 0x08	; 8
     62c:	69 0e       	add	r6, r25
     62e:	71 1c       	adc	r7, r1
     630:	84 01       	movw	r16, r8
     632:	c7 01       	movw	r24, r14
     634:	7e df       	rcall	.-260    	; 0x532 <_ZN5IRIGB7ReadBitEv>
     636:	d4 01       	movw	r26, r8
     638:	8d 93       	st	X+, r24
     63a:	4d 01       	movw	r8, r26
     63c:	a6 15       	cp	r26, r6
     63e:	b7 05       	cpc	r27, r7
     640:	c1 f7       	brne	.-16     	; 0x632 <_ZN5IRIGB13ReadTimeFrameEv+0x64>
     642:	f8 01       	movw	r30, r16
     644:	86 81       	ldd	r24, Z+6	; 0x06
     646:	88 0f       	add	r24, r24
     648:	98 2f       	mov	r25, r24
     64a:	99 0f       	add	r25, r25
     64c:	99 0f       	add	r25, r25
     64e:	89 0f       	add	r24, r25
     650:	97 81       	ldd	r25, Z+7	; 0x07
     652:	f4 e1       	ldi	r31, 0x14	; 20
     654:	9f 9f       	mul	r25, r31
     656:	80 0d       	add	r24, r0
     658:	11 24       	eor	r1, r1
     65a:	d8 01       	movw	r26, r16
     65c:	11 96       	adiw	r26, 0x01	; 1
     65e:	9c 91       	ld	r25, X
     660:	11 97       	sbiw	r26, 0x01	; 1
     662:	89 0f       	add	r24, r25
     664:	15 96       	adiw	r26, 0x05	; 5
     666:	9c 91       	ld	r25, X
     668:	15 97       	sbiw	r26, 0x05	; 5
     66a:	29 2f       	mov	r18, r25
     66c:	22 0f       	add	r18, r18
     66e:	22 0f       	add	r18, r18
     670:	92 0f       	add	r25, r18
     672:	89 0f       	add	r24, r25
     674:	13 96       	adiw	r26, 0x03	; 3
     676:	9c 91       	ld	r25, X
     678:	13 97       	sbiw	r26, 0x03	; 3
     67a:	99 0f       	add	r25, r25
     67c:	12 96       	adiw	r26, 0x02	; 2
     67e:	2c 91       	ld	r18, X
     680:	12 97       	sbiw	r26, 0x02	; 2
     682:	92 0f       	add	r25, r18
     684:	99 0f       	add	r25, r25
     686:	89 0f       	add	r24, r25
     688:	88 0f       	add	r24, r24
     68a:	9c 91       	ld	r25, X
     68c:	89 0f       	add	r24, r25
     68e:	f7 01       	movw	r30, r14
     690:	82 83       	std	Z+2, r24	; 0x02
     692:	c7 01       	movw	r24, r14
     694:	4e df       	rcall	.-356    	; 0x532 <_ZN5IRIGB7ReadBitEv>
     696:	02 97       	sbiw	r24, 0x02	; 2
     698:	19 f0       	breq	.+6      	; 0x6a0 <_ZN5IRIGB13ReadTimeFrameEv+0xd2>
     69a:	63 e4       	ldi	r22, 0x43	; 67
     69c:	71 e0       	ldi	r23, 0x01	; 1
     69e:	f6 c0       	rjmp	.+492    	; 0x88c <_ZN5IRIGB13ReadTimeFrameEv+0x2be>
     6a0:	48 01       	movw	r8, r16
     6a2:	f9 e0       	ldi	r31, 0x09	; 9
     6a4:	8f 0e       	add	r8, r31
     6a6:	91 1c       	adc	r9, r1
     6a8:	38 01       	movw	r6, r16
     6aa:	22 e1       	ldi	r18, 0x12	; 18
     6ac:	62 0e       	add	r6, r18
     6ae:	71 1c       	adc	r7, r1
     6b0:	c7 01       	movw	r24, r14
     6b2:	3f df       	rcall	.-386    	; 0x532 <_ZN5IRIGB7ReadBitEv>
     6b4:	d4 01       	movw	r26, r8
     6b6:	8d 93       	st	X+, r24
     6b8:	4d 01       	movw	r8, r26
     6ba:	a6 15       	cp	r26, r6
     6bc:	b7 05       	cpc	r27, r7
     6be:	c1 f7       	brne	.-16     	; 0x6b0 <_ZN5IRIGB13ReadTimeFrameEv+0xe2>
     6c0:	c7 01       	movw	r24, r14
     6c2:	37 df       	rcall	.-402    	; 0x532 <_ZN5IRIGB7ReadBitEv>
     6c4:	02 97       	sbiw	r24, 0x02	; 2
     6c6:	19 f0       	breq	.+6      	; 0x6ce <_ZN5IRIGB13ReadTimeFrameEv+0x100>
     6c8:	67 e5       	ldi	r22, 0x57	; 87
     6ca:	71 e0       	ldi	r23, 0x01	; 1
     6cc:	df c0       	rjmp	.+446    	; 0x88c <_ZN5IRIGB13ReadTimeFrameEv+0x2be>
     6ce:	f8 01       	movw	r30, r16
     6d0:	87 85       	ldd	r24, Z+15	; 0x0f
     6d2:	88 0f       	add	r24, r24
     6d4:	98 2f       	mov	r25, r24
     6d6:	99 0f       	add	r25, r25
     6d8:	99 0f       	add	r25, r25
     6da:	89 0f       	add	r24, r25
     6dc:	90 89       	ldd	r25, Z+16	; 0x10
     6de:	f4 e1       	ldi	r31, 0x14	; 20
     6e0:	9f 9f       	mul	r25, r31
     6e2:	80 0d       	add	r24, r0
     6e4:	11 24       	eor	r1, r1
     6e6:	d8 01       	movw	r26, r16
     6e8:	1a 96       	adiw	r26, 0x0a	; 10
     6ea:	9c 91       	ld	r25, X
     6ec:	1a 97       	sbiw	r26, 0x0a	; 10
     6ee:	89 0f       	add	r24, r25
     6f0:	1e 96       	adiw	r26, 0x0e	; 14
     6f2:	9c 91       	ld	r25, X
     6f4:	1e 97       	sbiw	r26, 0x0e	; 14
     6f6:	29 2f       	mov	r18, r25
     6f8:	22 0f       	add	r18, r18
     6fa:	22 0f       	add	r18, r18
     6fc:	92 0f       	add	r25, r18
     6fe:	89 0f       	add	r24, r25
     700:	1c 96       	adiw	r26, 0x0c	; 12
     702:	9c 91       	ld	r25, X
     704:	1c 97       	sbiw	r26, 0x0c	; 12
     706:	99 0f       	add	r25, r25
     708:	1b 96       	adiw	r26, 0x0b	; 11
     70a:	2c 91       	ld	r18, X
     70c:	1b 97       	sbiw	r26, 0x0b	; 11
     70e:	92 0f       	add	r25, r18
     710:	99 0f       	add	r25, r25
     712:	89 0f       	add	r24, r25
     714:	88 0f       	add	r24, r24
     716:	19 96       	adiw	r26, 0x09	; 9
     718:	9c 91       	ld	r25, X
     71a:	89 0f       	add	r24, r25
     71c:	f7 01       	movw	r30, r14
     71e:	83 83       	std	Z+3, r24	; 0x03
     720:	48 01       	movw	r8, r16
     722:	f3 e1       	ldi	r31, 0x13	; 19
     724:	8f 0e       	add	r8, r31
     726:	91 1c       	adc	r9, r1
     728:	38 01       	movw	r6, r16
     72a:	2c e1       	ldi	r18, 0x1C	; 28
     72c:	62 0e       	add	r6, r18
     72e:	71 1c       	adc	r7, r1
     730:	c7 01       	movw	r24, r14
     732:	ff de       	rcall	.-514    	; 0x532 <_ZN5IRIGB7ReadBitEv>
     734:	d4 01       	movw	r26, r8
     736:	8d 93       	st	X+, r24
     738:	4d 01       	movw	r8, r26
     73a:	a6 15       	cp	r26, r6
     73c:	b7 05       	cpc	r27, r7
     73e:	c1 f7       	brne	.-16     	; 0x730 <_ZN5IRIGB13ReadTimeFrameEv+0x162>
     740:	f8 01       	movw	r30, r16
     742:	91 8d       	ldd	r25, Z+25	; 0x19
     744:	80 8d       	ldd	r24, Z+24	; 0x18
     746:	28 2f       	mov	r18, r24
     748:	22 0f       	add	r18, r18
     74a:	22 0f       	add	r18, r18
     74c:	82 0f       	add	r24, r18
     74e:	fa e0       	ldi	r31, 0x0A	; 10
     750:	9f 9f       	mul	r25, r31
     752:	80 0d       	add	r24, r0
     754:	11 24       	eor	r1, r1
     756:	d8 01       	movw	r26, r16
     758:	54 96       	adiw	r26, 0x14	; 20
     75a:	9c 91       	ld	r25, X
     75c:	54 97       	sbiw	r26, 0x14	; 20
     75e:	89 0f       	add	r24, r25
     760:	56 96       	adiw	r26, 0x16	; 22
     762:	9c 91       	ld	r25, X
     764:	56 97       	sbiw	r26, 0x16	; 22
     766:	99 0f       	add	r25, r25
     768:	55 96       	adiw	r26, 0x15	; 21
     76a:	2c 91       	ld	r18, X
     76c:	55 97       	sbiw	r26, 0x15	; 21
     76e:	92 0f       	add	r25, r18
     770:	99 0f       	add	r25, r25
     772:	89 0f       	add	r24, r25
     774:	88 0f       	add	r24, r24
     776:	53 96       	adiw	r26, 0x13	; 19
     778:	9c 91       	ld	r25, X
     77a:	89 0f       	add	r24, r25
     77c:	f7 01       	movw	r30, r14
     77e:	84 83       	std	Z+4, r24	; 0x04
     780:	c7 01       	movw	r24, r14
     782:	d7 de       	rcall	.-594    	; 0x532 <_ZN5IRIGB7ReadBitEv>
     784:	02 97       	sbiw	r24, 0x02	; 2
     786:	19 f0       	breq	.+6      	; 0x78e <_ZN5IRIGB13ReadTimeFrameEv+0x1c0>
     788:	6b e6       	ldi	r22, 0x6B	; 107
     78a:	71 e0       	ldi	r23, 0x01	; 1
     78c:	7f c0       	rjmp	.+254    	; 0x88c <_ZN5IRIGB13ReadTimeFrameEv+0x2be>
     78e:	48 01       	movw	r8, r16
     790:	fd e1       	ldi	r31, 0x1D	; 29
     792:	8f 0e       	add	r8, r31
     794:	91 1c       	adc	r9, r1
     796:	38 01       	movw	r6, r16
     798:	26 e2       	ldi	r18, 0x26	; 38
     79a:	62 0e       	add	r6, r18
     79c:	71 1c       	adc	r7, r1
     79e:	c7 01       	movw	r24, r14
     7a0:	c8 de       	rcall	.-624    	; 0x532 <_ZN5IRIGB7ReadBitEv>
     7a2:	d4 01       	movw	r26, r8
     7a4:	8d 93       	st	X+, r24
     7a6:	4d 01       	movw	r8, r26
     7a8:	a6 15       	cp	r26, r6
     7aa:	b7 05       	cpc	r27, r7
     7ac:	c1 f7       	brne	.-16     	; 0x79e <_ZN5IRIGB13ReadTimeFrameEv+0x1d0>
     7ae:	c7 01       	movw	r24, r14
     7b0:	c0 de       	rcall	.-640    	; 0x532 <_ZN5IRIGB7ReadBitEv>
     7b2:	02 97       	sbiw	r24, 0x02	; 2
     7b4:	19 f0       	breq	.+6      	; 0x7bc <_ZN5IRIGB13ReadTimeFrameEv+0x1ee>
     7b6:	6d e7       	ldi	r22, 0x7D	; 125
     7b8:	71 e0       	ldi	r23, 0x01	; 1
     7ba:	68 c0       	rjmp	.+208    	; 0x88c <_ZN5IRIGB13ReadTimeFrameEv+0x2be>
     7bc:	48 01       	movw	r8, r16
     7be:	b7 e2       	ldi	r27, 0x27	; 39
     7c0:	8b 0e       	add	r8, r27
     7c2:	91 1c       	adc	r9, r1
     7c4:	38 01       	movw	r6, r16
     7c6:	e0 e3       	ldi	r30, 0x30	; 48
     7c8:	6e 0e       	add	r6, r30
     7ca:	71 1c       	adc	r7, r1
     7cc:	c7 01       	movw	r24, r14
     7ce:	b1 de       	rcall	.-670    	; 0x532 <_ZN5IRIGB7ReadBitEv>
     7d0:	d4 01       	movw	r26, r8
     7d2:	8d 93       	st	X+, r24
     7d4:	4d 01       	movw	r8, r26
     7d6:	a6 15       	cp	r26, r6
     7d8:	b7 05       	cpc	r27, r7
     7da:	c1 f7       	brne	.-16     	; 0x7cc <_ZN5IRIGB13ReadTimeFrameEv+0x1fe>
     7dc:	c7 01       	movw	r24, r14
     7de:	a9 de       	rcall	.-686    	; 0x532 <_ZN5IRIGB7ReadBitEv>
     7e0:	02 97       	sbiw	r24, 0x02	; 2
     7e2:	19 f0       	breq	.+6      	; 0x7ea <_ZN5IRIGB13ReadTimeFrameEv+0x21c>
     7e4:	65 e9       	ldi	r22, 0x95	; 149
     7e6:	71 e0       	ldi	r23, 0x01	; 1
     7e8:	51 c0       	rjmp	.+162    	; 0x88c <_ZN5IRIGB13ReadTimeFrameEv+0x2be>
     7ea:	f8 01       	movw	r30, r16
     7ec:	26 8d       	ldd	r18, Z+30	; 0x1e
     7ee:	a7 8d       	ldd	r26, Z+31	; 0x1f
     7f0:	b0 a1       	ldd	r27, Z+32	; 0x20
     7f2:	92 a0       	ldd	r9, Z+34	; 0x22
     7f4:	73 a1       	ldd	r23, Z+35	; 0x23
     7f6:	64 a1       	ldd	r22, Z+36	; 0x24
     7f8:	55 a1       	ldd	r21, Z+37	; 0x25
     7fa:	47 a1       	ldd	r20, Z+39	; 0x27
     7fc:	30 a5       	ldd	r19, Z+40	; 0x28
     7fe:	85 8d       	ldd	r24, Z+29	; 0x1d
     800:	90 e0       	ldi	r25, 0x00	; 0
     802:	82 0f       	add	r24, r18
     804:	91 1d       	adc	r25, r1
     806:	82 0f       	add	r24, r18
     808:	91 1d       	adc	r25, r1
     80a:	f4 e0       	ldi	r31, 0x04	; 4
     80c:	af 9f       	mul	r26, r31
     80e:	80 0d       	add	r24, r0
     810:	91 1d       	adc	r25, r1
     812:	11 24       	eor	r1, r1
     814:	28 e0       	ldi	r18, 0x08	; 8
     816:	b2 9f       	mul	r27, r18
     818:	80 0d       	add	r24, r0
     81a:	91 1d       	adc	r25, r1
     81c:	11 24       	eor	r1, r1
     81e:	aa e0       	ldi	r26, 0x0A	; 10
     820:	9a 9e       	mul	r9, r26
     822:	80 0d       	add	r24, r0
     824:	91 1d       	adc	r25, r1
     826:	11 24       	eor	r1, r1
     828:	b4 e1       	ldi	r27, 0x14	; 20
     82a:	7b 9f       	mul	r23, r27
     82c:	80 0d       	add	r24, r0
     82e:	91 1d       	adc	r25, r1
     830:	11 24       	eor	r1, r1
     832:	e8 e2       	ldi	r30, 0x28	; 40
     834:	6e 9f       	mul	r22, r30
     836:	80 0d       	add	r24, r0
     838:	91 1d       	adc	r25, r1
     83a:	11 24       	eor	r1, r1
     83c:	f0 e5       	ldi	r31, 0x50	; 80
     83e:	5f 9f       	mul	r21, r31
     840:	80 0d       	add	r24, r0
     842:	91 1d       	adc	r25, r1
     844:	11 24       	eor	r1, r1
     846:	24 e6       	ldi	r18, 0x64	; 100
     848:	42 9f       	mul	r20, r18
     84a:	80 0d       	add	r24, r0
     84c:	91 1d       	adc	r25, r1
     84e:	11 24       	eor	r1, r1
     850:	a8 ec       	ldi	r26, 0xC8	; 200
     852:	3a 9f       	mul	r19, r26
     854:	80 0d       	add	r24, r0
     856:	91 1d       	adc	r25, r1
     858:	11 24       	eor	r1, r1
     85a:	f7 01       	movw	r30, r14
     85c:	92 87       	std	Z+10, r25	; 0x0a
     85e:	81 87       	std	Z+9, r24	; 0x09
     860:	48 01       	movw	r8, r16
     862:	f1 e3       	ldi	r31, 0x31	; 49
     864:	8f 0e       	add	r8, r31
     866:	91 1c       	adc	r9, r1
     868:	38 01       	movw	r6, r16
     86a:	2a e3       	ldi	r18, 0x3A	; 58
     86c:	62 0e       	add	r6, r18
     86e:	71 1c       	adc	r7, r1
     870:	c7 01       	movw	r24, r14
     872:	5f de       	rcall	.-834    	; 0x532 <_ZN5IRIGB7ReadBitEv>
     874:	d4 01       	movw	r26, r8
     876:	8d 93       	st	X+, r24
     878:	4d 01       	movw	r8, r26
     87a:	a6 15       	cp	r26, r6
     87c:	b7 05       	cpc	r27, r7
     87e:	c1 f7       	brne	.-16     	; 0x870 <_ZN5IRIGB13ReadTimeFrameEv+0x2a2>
     880:	c7 01       	movw	r24, r14
     882:	57 de       	rcall	.-850    	; 0x532 <_ZN5IRIGB7ReadBitEv>
     884:	02 97       	sbiw	r24, 0x02	; 2
     886:	31 f0       	breq	.+12     	; 0x894 <_ZN5IRIGB13ReadTimeFrameEv+0x2c6>
     888:	6d ea       	ldi	r22, 0xAD	; 173
     88a:	71 e0       	ldi	r23, 0x01	; 1
     88c:	c6 01       	movw	r24, r12
     88e:	0e 94 e2 13 	call	0x27c4	; 0x27c4 <_ZN6StringC1EPKc>
     892:	ae c0       	rjmp	.+348    	; 0x9f0 <__stack+0xf1>
     894:	f8 01       	movw	r30, r16
     896:	82 a9       	ldd	r24, Z+50	; 0x32
     898:	e3 a9       	ldd	r30, Z+51	; 0x33
     89a:	d8 01       	movw	r26, r16
     89c:	d4 96       	adiw	r26, 0x34	; 52
     89e:	7c 91       	ld	r23, X
     8a0:	d4 97       	sbiw	r26, 0x34	; 52
     8a2:	d6 96       	adiw	r26, 0x36	; 54
     8a4:	6c 91       	ld	r22, X
     8a6:	d6 97       	sbiw	r26, 0x36	; 54
     8a8:	d7 96       	adiw	r26, 0x37	; 55
     8aa:	5c 91       	ld	r21, X
     8ac:	d7 97       	sbiw	r26, 0x37	; 55
     8ae:	d8 96       	adiw	r26, 0x38	; 56
     8b0:	4c 91       	ld	r20, X
     8b2:	d8 97       	sbiw	r26, 0x38	; 56
     8b4:	d9 96       	adiw	r26, 0x39	; 57
     8b6:	9c 91       	ld	r25, X
     8b8:	d9 97       	sbiw	r26, 0x39	; 57
     8ba:	d1 96       	adiw	r26, 0x31	; 49
     8bc:	2c 91       	ld	r18, X
     8be:	30 e0       	ldi	r19, 0x00	; 0
     8c0:	20 53       	subi	r18, 0x30	; 48
     8c2:	38 4f       	sbci	r19, 0xF8	; 248
     8c4:	28 0f       	add	r18, r24
     8c6:	31 1d       	adc	r19, r1
     8c8:	28 0f       	add	r18, r24
     8ca:	31 1d       	adc	r19, r1
     8cc:	b4 e0       	ldi	r27, 0x04	; 4
     8ce:	eb 9f       	mul	r30, r27
     8d0:	20 0d       	add	r18, r0
     8d2:	31 1d       	adc	r19, r1
     8d4:	11 24       	eor	r1, r1
     8d6:	e8 e0       	ldi	r30, 0x08	; 8
     8d8:	7e 9f       	mul	r23, r30
     8da:	20 0d       	add	r18, r0
     8dc:	31 1d       	adc	r19, r1
     8de:	11 24       	eor	r1, r1
     8e0:	fa e0       	ldi	r31, 0x0A	; 10
     8e2:	6f 9f       	mul	r22, r31
     8e4:	20 0d       	add	r18, r0
     8e6:	31 1d       	adc	r19, r1
     8e8:	11 24       	eor	r1, r1
     8ea:	84 e1       	ldi	r24, 0x14	; 20
     8ec:	58 9f       	mul	r21, r24
     8ee:	20 0d       	add	r18, r0
     8f0:	31 1d       	adc	r19, r1
     8f2:	11 24       	eor	r1, r1
     8f4:	a8 e2       	ldi	r26, 0x28	; 40
     8f6:	4a 9f       	mul	r20, r26
     8f8:	20 0d       	add	r18, r0
     8fa:	31 1d       	adc	r19, r1
     8fc:	11 24       	eor	r1, r1
     8fe:	b0 e5       	ldi	r27, 0x50	; 80
     900:	9b 9f       	mul	r25, r27
     902:	20 0d       	add	r18, r0
     904:	31 1d       	adc	r19, r1
     906:	11 24       	eor	r1, r1
     908:	f7 01       	movw	r30, r14
     90a:	30 87       	std	Z+8, r19	; 0x08
     90c:	27 83       	std	Z+7, r18	; 0x07
     90e:	83 85       	ldd	r24, Z+11	; 0x0b
     910:	94 85       	ldd	r25, Z+12	; 0x0c
     912:	28 17       	cp	r18, r24
     914:	39 07       	cpc	r19, r25
     916:	e9 f0       	breq	.+58     	; 0x952 <__stack+0x53>
     918:	34 87       	std	Z+12, r19	; 0x0c
     91a:	23 87       	std	Z+11, r18	; 0x0b
     91c:	c9 01       	movw	r24, r18
     91e:	83 70       	andi	r24, 0x03	; 3
     920:	99 27       	eor	r25, r25
     922:	89 2b       	or	r24, r25
     924:	b1 f4       	brne	.+44     	; 0x952 <__stack+0x53>
     926:	c9 01       	movw	r24, r18
     928:	64 e6       	ldi	r22, 0x64	; 100
     92a:	70 e0       	ldi	r23, 0x00	; 0
     92c:	0e 94 a6 16 	call	0x2d4c	; 0x2d4c <__udivmodhi4>
     930:	89 2b       	or	r24, r25
     932:	29 f0       	breq	.+10     	; 0x93e <__stack+0x3f>
     934:	8d e1       	ldi	r24, 0x1D	; 29
     936:	d5 01       	movw	r26, r10
     938:	11 96       	adiw	r26, 0x01	; 1
     93a:	8c 93       	st	X, r24
     93c:	0a c0       	rjmp	.+20     	; 0x952 <__stack+0x53>
     93e:	c9 01       	movw	r24, r18
     940:	60 e9       	ldi	r22, 0x90	; 144
     942:	71 e0       	ldi	r23, 0x01	; 1
     944:	0e 94 a6 16 	call	0x2d4c	; 0x2d4c <__udivmodhi4>
     948:	89 2b       	or	r24, r25
     94a:	a1 f3       	breq	.-24     	; 0x934 <__stack+0x35>
     94c:	8c e1       	ldi	r24, 0x1C	; 28
     94e:	f5 01       	movw	r30, r10
     950:	81 83       	std	Z+1, r24	; 0x01
     952:	d7 01       	movw	r26, r14
     954:	19 96       	adiw	r26, 0x09	; 9
     956:	8d 91       	ld	r24, X+
     958:	9c 91       	ld	r25, X
     95a:	1a 97       	sbiw	r26, 0x0a	; 10
     95c:	1d 96       	adiw	r26, 0x0d	; 13
     95e:	4d 91       	ld	r20, X+
     960:	5c 91       	ld	r21, X
     962:	1e 97       	sbiw	r26, 0x0e	; 14
     964:	84 17       	cp	r24, r20
     966:	95 07       	cpc	r25, r21
     968:	a1 f0       	breq	.+40     	; 0x992 <__stack+0x93>
     96a:	1e 96       	adiw	r26, 0x0e	; 14
     96c:	9c 93       	st	X, r25
     96e:	8e 93       	st	-X, r24
     970:	1d 97       	sbiw	r26, 0x0d	; 13
     972:	f5 01       	movw	r30, r10
     974:	bf 01       	movw	r22, r30
     976:	6a 19       	sub	r22, r10
     978:	7b 09       	sbc	r23, r11
     97a:	41 91       	ld	r20, Z+
     97c:	50 e0       	ldi	r21, 0x00	; 0
     97e:	48 17       	cp	r20, r24
     980:	59 07       	cpc	r21, r25
     982:	18 f4       	brcc	.+6      	; 0x98a <__stack+0x8b>
     984:	84 1b       	sub	r24, r20
     986:	95 0b       	sbc	r25, r21
     988:	f5 cf       	rjmp	.-22     	; 0x974 <__stack+0x75>
     98a:	6f 5f       	subi	r22, 0xFF	; 255
     98c:	f7 01       	movw	r30, r14
     98e:	65 83       	std	Z+5, r22	; 0x05
     990:	86 83       	std	Z+6, r24	; 0x06
     992:	d7 01       	movw	r26, r14
     994:	12 96       	adiw	r26, 0x02	; 2
     996:	8c 91       	ld	r24, X
     998:	12 97       	sbiw	r26, 0x02	; 2
     99a:	1f 92       	push	r1
     99c:	8f 93       	push	r24
     99e:	13 96       	adiw	r26, 0x03	; 3
     9a0:	8c 91       	ld	r24, X
     9a2:	13 97       	sbiw	r26, 0x03	; 3
     9a4:	1f 92       	push	r1
     9a6:	8f 93       	push	r24
     9a8:	14 96       	adiw	r26, 0x04	; 4
     9aa:	8c 91       	ld	r24, X
     9ac:	14 97       	sbiw	r26, 0x04	; 4
     9ae:	1f 92       	push	r1
     9b0:	8f 93       	push	r24
     9b2:	16 96       	adiw	r26, 0x06	; 6
     9b4:	8c 91       	ld	r24, X
     9b6:	16 97       	sbiw	r26, 0x06	; 6
     9b8:	1f 92       	push	r1
     9ba:	8f 93       	push	r24
     9bc:	15 96       	adiw	r26, 0x05	; 5
     9be:	8c 91       	ld	r24, X
     9c0:	1f 92       	push	r1
     9c2:	8f 93       	push	r24
     9c4:	3f 93       	push	r19
     9c6:	2f 93       	push	r18
     9c8:	8f eb       	ldi	r24, 0xBF	; 191
     9ca:	91 e0       	ldi	r25, 0x01	; 1
     9cc:	9f 93       	push	r25
     9ce:	8f 93       	push	r24
     9d0:	8e 01       	movw	r16, r28
     9d2:	0f 5f       	subi	r16, 0xFF	; 255
     9d4:	1f 4f       	sbci	r17, 0xFF	; 255
     9d6:	1f 93       	push	r17
     9d8:	0f 93       	push	r16
     9da:	0e 94 f1 18 	call	0x31e2	; 0x31e2 <sprintf>
     9de:	b8 01       	movw	r22, r16
     9e0:	c6 01       	movw	r24, r12
     9e2:	0e 94 e2 13 	call	0x27c4	; 0x27c4 <_ZN6StringC1EPKc>
     9e6:	0f b6       	in	r0, 0x3f	; 63
     9e8:	f8 94       	cli
     9ea:	de bf       	out	0x3e, r29	; 62
     9ec:	0f be       	out	0x3f, r0	; 63
     9ee:	cd bf       	out	0x3d, r28	; 61
     9f0:	c6 01       	movw	r24, r12
     9f2:	c6 55       	subi	r28, 0x56	; 86
     9f4:	df 4f       	sbci	r29, 0xFF	; 255
     9f6:	0f b6       	in	r0, 0x3f	; 63
     9f8:	f8 94       	cli
     9fa:	de bf       	out	0x3e, r29	; 62
     9fc:	0f be       	out	0x3f, r0	; 63
     9fe:	cd bf       	out	0x3d, r28	; 61
     a00:	df 91       	pop	r29
     a02:	cf 91       	pop	r28
     a04:	1f 91       	pop	r17
     a06:	0f 91       	pop	r16
     a08:	ff 90       	pop	r15
     a0a:	ef 90       	pop	r14
     a0c:	df 90       	pop	r13
     a0e:	cf 90       	pop	r12
     a10:	bf 90       	pop	r11
     a12:	af 90       	pop	r10
     a14:	9f 90       	pop	r9
     a16:	8f 90       	pop	r8
     a18:	7f 90       	pop	r7
     a1a:	6f 90       	pop	r6
     a1c:	08 95       	ret

00000a1e <_ZN8SPIClass5beginEv>:
     a1e:	cf 93       	push	r28
     a20:	cf b7       	in	r28, 0x3f	; 63
     a22:	f8 94       	cli
     a24:	80 91 3d 02 	lds	r24, 0x023D	; 0x80023d <_ZN8SPIClass11initializedE>
     a28:	81 11       	cpse	r24, r1
     a2a:	27 c0       	rjmp	.+78     	; 0xa7a <_ZN8SPIClass5beginEv+0x5c>
     a2c:	ea e9       	ldi	r30, 0x9A	; 154
     a2e:	f0 e0       	ldi	r31, 0x00	; 0
     a30:	84 91       	lpm	r24, Z
     a32:	e6 e8       	ldi	r30, 0x86	; 134
     a34:	f0 e0       	ldi	r31, 0x00	; 0
     a36:	94 91       	lpm	r25, Z
     a38:	e8 2f       	mov	r30, r24
     a3a:	f0 e0       	ldi	r31, 0x00	; 0
     a3c:	ee 0f       	add	r30, r30
     a3e:	ff 1f       	adc	r31, r31
     a40:	e8 54       	subi	r30, 0x48	; 72
     a42:	ff 4f       	sbci	r31, 0xFF	; 255
     a44:	a5 91       	lpm	r26, Z+
     a46:	b4 91       	lpm	r27, Z
     a48:	ec 91       	ld	r30, X
     a4a:	e9 23       	and	r30, r25
     a4c:	21 f4       	brne	.+8      	; 0xa56 <_ZN8SPIClass5beginEv+0x38>
     a4e:	61 e0       	ldi	r22, 0x01	; 1
     a50:	8a e0       	ldi	r24, 0x0A	; 10
     a52:	0e 94 f8 15 	call	0x2bf0	; 0x2bf0 <digitalWrite>
     a56:	61 e0       	ldi	r22, 0x01	; 1
     a58:	8a e0       	ldi	r24, 0x0A	; 10
     a5a:	0e 94 bc 15 	call	0x2b78	; 0x2b78 <pinMode>
     a5e:	8c b5       	in	r24, 0x2c	; 44
     a60:	80 61       	ori	r24, 0x10	; 16
     a62:	8c bd       	out	0x2c, r24	; 44
     a64:	8c b5       	in	r24, 0x2c	; 44
     a66:	80 64       	ori	r24, 0x40	; 64
     a68:	8c bd       	out	0x2c, r24	; 44
     a6a:	61 e0       	ldi	r22, 0x01	; 1
     a6c:	8d e0       	ldi	r24, 0x0D	; 13
     a6e:	0e 94 bc 15 	call	0x2b78	; 0x2b78 <pinMode>
     a72:	61 e0       	ldi	r22, 0x01	; 1
     a74:	8b e0       	ldi	r24, 0x0B	; 11
     a76:	0e 94 bc 15 	call	0x2b78	; 0x2b78 <pinMode>
     a7a:	80 91 3d 02 	lds	r24, 0x023D	; 0x80023d <_ZN8SPIClass11initializedE>
     a7e:	8f 5f       	subi	r24, 0xFF	; 255
     a80:	80 93 3d 02 	sts	0x023D, r24	; 0x80023d <_ZN8SPIClass11initializedE>
     a84:	cf bf       	out	0x3f, r28	; 63
     a86:	cf 91       	pop	r28
     a88:	08 95       	ret

00000a8a <_ZN9NetEEPROM10readEEPROMEPhii>:
     a8a:	cf 92       	push	r12
     a8c:	df 92       	push	r13
     a8e:	ef 92       	push	r14
     a90:	ff 92       	push	r15
     a92:	0f 93       	push	r16
     a94:	1f 93       	push	r17
     a96:	cf 93       	push	r28
     a98:	df 93       	push	r29
     a9a:	8b 01       	movw	r16, r22
     a9c:	69 01       	movw	r12, r18
     a9e:	eb 01       	movw	r28, r22
     aa0:	7a 01       	movw	r14, r20
     aa2:	e6 1a       	sub	r14, r22
     aa4:	f7 0a       	sbc	r15, r23
     aa6:	ce 01       	movw	r24, r28
     aa8:	80 1b       	sub	r24, r16
     aaa:	91 0b       	sbc	r25, r17
     aac:	8c 15       	cp	r24, r12
     aae:	9d 05       	cpc	r25, r13
     ab0:	3c f4       	brge	.+14     	; 0xac0 <_ZN9NetEEPROM10readEEPROMEPhii+0x36>
     ab2:	c7 01       	movw	r24, r14
     ab4:	8c 0f       	add	r24, r28
     ab6:	9d 1f       	adc	r25, r29
     ab8:	0e 94 80 1b 	call	0x3700	; 0x3700 <eeprom_read_byte>
     abc:	89 93       	st	Y+, r24
     abe:	f3 cf       	rjmp	.-26     	; 0xaa6 <_ZN9NetEEPROM10readEEPROMEPhii+0x1c>
     ac0:	df 91       	pop	r29
     ac2:	cf 91       	pop	r28
     ac4:	1f 91       	pop	r17
     ac6:	0f 91       	pop	r16
     ac8:	ff 90       	pop	r15
     aca:	ef 90       	pop	r14
     acc:	df 90       	pop	r13
     ace:	cf 90       	pop	r12
     ad0:	08 95       	ret

00000ad2 <_ZN9NetEEPROM7readMacEPh>:
     ad2:	fc 01       	movw	r30, r24
     ad4:	40 81       	ld	r20, Z
     ad6:	51 81       	ldd	r21, Z+1	; 0x01
     ad8:	4f 5f       	subi	r20, 0xFF	; 255
     ada:	5f 4f       	sbci	r21, 0xFF	; 255
     adc:	26 e0       	ldi	r18, 0x06	; 6
     ade:	30 e0       	ldi	r19, 0x00	; 0
     ae0:	d4 cf       	rjmp	.-88     	; 0xa8a <_ZN9NetEEPROM10readEEPROMEPhii>

00000ae2 <_ZN9NetEEPROM6readIpEPh>:
     ae2:	fc 01       	movw	r30, r24
     ae4:	40 81       	ld	r20, Z
     ae6:	51 81       	ldd	r21, Z+1	; 0x01
     ae8:	48 5f       	subi	r20, 0xF8	; 248
     aea:	5f 4f       	sbci	r21, 0xFF	; 255
     aec:	24 e0       	ldi	r18, 0x04	; 4
     aee:	30 e0       	ldi	r19, 0x00	; 0
     af0:	cc cf       	rjmp	.-104    	; 0xa8a <_ZN9NetEEPROM10readEEPROMEPhii>

00000af2 <_ZN9NetEEPROM7readDnsEPh>:
     af2:	fc 01       	movw	r30, r24
     af4:	40 81       	ld	r20, Z
     af6:	51 81       	ldd	r21, Z+1	; 0x01
     af8:	44 5f       	subi	r20, 0xF4	; 244
     afa:	5f 4f       	sbci	r21, 0xFF	; 255
     afc:	24 e0       	ldi	r18, 0x04	; 4
     afe:	30 e0       	ldi	r19, 0x00	; 0
     b00:	c4 cf       	rjmp	.-120    	; 0xa8a <_ZN9NetEEPROM10readEEPROMEPhii>

00000b02 <_ZN9NetEEPROM11readGatewayEPh>:
     b02:	fc 01       	movw	r30, r24
     b04:	40 81       	ld	r20, Z
     b06:	51 81       	ldd	r21, Z+1	; 0x01
     b08:	40 5f       	subi	r20, 0xF0	; 240
     b0a:	5f 4f       	sbci	r21, 0xFF	; 255
     b0c:	24 e0       	ldi	r18, 0x04	; 4
     b0e:	30 e0       	ldi	r19, 0x00	; 0
     b10:	bc cf       	rjmp	.-136    	; 0xa8a <_ZN9NetEEPROM10readEEPROMEPhii>

00000b12 <_ZN9NetEEPROM10readSubnetEPh>:
     b12:	fc 01       	movw	r30, r24
     b14:	40 81       	ld	r20, Z
     b16:	51 81       	ldd	r21, Z+1	; 0x01
     b18:	4c 5e       	subi	r20, 0xEC	; 236
     b1a:	5f 4f       	sbci	r21, 0xFF	; 255
     b1c:	24 e0       	ldi	r18, 0x04	; 4
     b1e:	30 e0       	ldi	r19, 0x00	; 0
     b20:	b4 cf       	rjmp	.-152    	; 0xa8a <_ZN9NetEEPROM10readEEPROMEPhii>

00000b22 <_GLOBAL__sub_I__ZN9NetEEPROMC2Ev>:
     b22:	0f 93       	push	r16
     b24:	00 e0       	ldi	r16, 0x00	; 0
     b26:	20 e0       	ldi	r18, 0x00	; 0
     b28:	40 e0       	ldi	r20, 0x00	; 0
     b2a:	60 e0       	ldi	r22, 0x00	; 0
     b2c:	80 e4       	ldi	r24, 0x40	; 64
     b2e:	92 e0       	ldi	r25, 0x02	; 2
     b30:	0e 94 73 12 	call	0x24e6	; 0x24e6 <_ZN9IPAddressC1Ehhhh>
     b34:	10 92 3f 02 	sts	0x023F, r1	; 0x80023f <NetEeprom+0x1>
     b38:	10 92 3e 02 	sts	0x023E, r1	; 0x80023e <NetEeprom>
     b3c:	0f 91       	pop	r16
     b3e:	08 95       	ret

00000b40 <_ZN11SPISettingsC1Emhh>:
     b40:	0f 93       	push	r16
     b42:	fc 01       	movw	r30, r24
     b44:	30 e0       	ldi	r19, 0x00	; 0
     b46:	80 e0       	ldi	r24, 0x00	; 0
     b48:	92 e1       	ldi	r25, 0x12	; 18
     b4a:	aa e7       	ldi	r26, 0x7A	; 122
     b4c:	b0 e0       	ldi	r27, 0x00	; 0
     b4e:	48 17       	cp	r20, r24
     b50:	59 07       	cpc	r21, r25
     b52:	6a 07       	cpc	r22, r26
     b54:	7b 07       	cpc	r23, r27
     b56:	40 f4       	brcc	.+16     	; 0xb68 <_ZN11SPISettingsC1Emhh+0x28>
     b58:	b6 95       	lsr	r27
     b5a:	a7 95       	ror	r26
     b5c:	97 95       	ror	r25
     b5e:	87 95       	ror	r24
     b60:	3f 5f       	subi	r19, 0xFF	; 255
     b62:	36 30       	cpi	r19, 0x06	; 6
     b64:	a1 f7       	brne	.-24     	; 0xb4e <_ZN11SPISettingsC1Emhh+0xe>
     b66:	37 e0       	ldi	r19, 0x07	; 7
     b68:	91 e0       	ldi	r25, 0x01	; 1
     b6a:	93 27       	eor	r25, r19
     b6c:	22 23       	and	r18, r18
     b6e:	11 f0       	breq	.+4      	; 0xb74 <_ZN11SPISettingsC1Emhh+0x34>
     b70:	20 e5       	ldi	r18, 0x50	; 80
     b72:	01 c0       	rjmp	.+2      	; 0xb76 <_ZN11SPISettingsC1Emhh+0x36>
     b74:	20 e7       	ldi	r18, 0x70	; 112
     b76:	89 2f       	mov	r24, r25
     b78:	86 95       	lsr	r24
     b7a:	0c 70       	andi	r16, 0x0C	; 12
     b7c:	08 2b       	or	r16, r24
     b7e:	02 2b       	or	r16, r18
     b80:	00 83       	st	Z, r16
     b82:	91 70       	andi	r25, 0x01	; 1
     b84:	91 83       	std	Z+1, r25	; 0x01
     b86:	0f 91       	pop	r16
     b88:	08 95       	ret

00000b8a <_ZN8SPIClass16beginTransactionE11SPISettings>:
     b8a:	20 91 3c 02 	lds	r18, 0x023C	; 0x80023c <_ZN8SPIClass13interruptModeE>
     b8e:	22 23       	and	r18, r18
     b90:	99 f0       	breq	.+38     	; 0xbb8 <_ZN8SPIClass16beginTransactionE11SPISettings+0x2e>
     b92:	4f b7       	in	r20, 0x3f	; 63
     b94:	f8 94       	cli
     b96:	20 91 3c 02 	lds	r18, 0x023C	; 0x80023c <_ZN8SPIClass13interruptModeE>
     b9a:	21 30       	cpi	r18, 0x01	; 1
     b9c:	59 f4       	brne	.+22     	; 0xbb4 <_ZN8SPIClass16beginTransactionE11SPISettings+0x2a>
     b9e:	2d b3       	in	r18, 0x1d	; 29
     ba0:	20 93 3a 02 	sts	0x023A, r18	; 0x80023a <_ZN8SPIClass13interruptSaveE>
     ba4:	3d b3       	in	r19, 0x1d	; 29
     ba6:	20 91 3b 02 	lds	r18, 0x023B	; 0x80023b <_ZN8SPIClass13interruptMaskE>
     baa:	20 95       	com	r18
     bac:	23 23       	and	r18, r19
     bae:	2d bb       	out	0x1d, r18	; 29
     bb0:	4f bf       	out	0x3f, r20	; 63
     bb2:	02 c0       	rjmp	.+4      	; 0xbb8 <_ZN8SPIClass16beginTransactionE11SPISettings+0x2e>
     bb4:	40 93 3a 02 	sts	0x023A, r20	; 0x80023a <_ZN8SPIClass13interruptSaveE>
     bb8:	8c bd       	out	0x2c, r24	; 44
     bba:	9d bd       	out	0x2d, r25	; 45
     bbc:	08 95       	ret

00000bbe <_ZN8SPIClass14endTransactionEv>:
     bbe:	80 91 3c 02 	lds	r24, 0x023C	; 0x80023c <_ZN8SPIClass13interruptModeE>
     bc2:	88 23       	and	r24, r24
     bc4:	61 f0       	breq	.+24     	; 0xbde <_ZN8SPIClass14endTransactionEv+0x20>
     bc6:	9f b7       	in	r25, 0x3f	; 63
     bc8:	f8 94       	cli
     bca:	20 91 3c 02 	lds	r18, 0x023C	; 0x80023c <_ZN8SPIClass13interruptModeE>
     bce:	80 91 3a 02 	lds	r24, 0x023A	; 0x80023a <_ZN8SPIClass13interruptSaveE>
     bd2:	21 30       	cpi	r18, 0x01	; 1
     bd4:	19 f4       	brne	.+6      	; 0xbdc <_ZN8SPIClass14endTransactionEv+0x1e>
     bd6:	8d bb       	out	0x1d, r24	; 29
     bd8:	9f bf       	out	0x3f, r25	; 63
     bda:	08 95       	ret
     bdc:	8f bf       	out	0x3f, r24	; 63
     bde:	08 95       	ret

00000be0 <_ZN10W5100Class11writeSnDIPREhPh>:
     be0:	90 e0       	ldi	r25, 0x00	; 0
     be2:	98 2f       	mov	r25, r24
     be4:	88 27       	eor	r24, r24
     be6:	44 e0       	ldi	r20, 0x04	; 4
     be8:	50 e0       	ldi	r21, 0x00	; 0
     bea:	84 5f       	subi	r24, 0xF4	; 244
     bec:	9b 4f       	sbci	r25, 0xFB	; 251
     bee:	fc c2       	rjmp	.+1528   	; 0x11e8 <_ZN10W5100Class5writeEjPKhj>

00000bf0 <_ZN10W5100Class6readSnEhj>:
     bf0:	90 e0       	ldi	r25, 0x00	; 0
     bf2:	04 96       	adiw	r24, 0x04	; 4
     bf4:	98 2f       	mov	r25, r24
     bf6:	88 27       	eor	r24, r24
     bf8:	86 0f       	add	r24, r22
     bfa:	97 1f       	adc	r25, r23
     bfc:	1e c3       	rjmp	.+1596   	; 0x123a <_ZN10W5100Class4readEj>

00000bfe <_ZN10W5100Class8readSnIREh>:
     bfe:	62 e0       	ldi	r22, 0x02	; 2
     c00:	70 e0       	ldi	r23, 0x00	; 0
     c02:	f6 cf       	rjmp	.-20     	; 0xbf0 <_ZN10W5100Class6readSnEhj>

00000c04 <_ZN10W5100Class7writeSnEhjh>:
     c04:	9b 01       	movw	r18, r22
     c06:	90 e0       	ldi	r25, 0x00	; 0
     c08:	04 96       	adiw	r24, 0x04	; 4
     c0a:	98 2f       	mov	r25, r24
     c0c:	88 27       	eor	r24, r24
     c0e:	64 2f       	mov	r22, r20
     c10:	82 0f       	add	r24, r18
     c12:	93 1f       	adc	r25, r19
     c14:	5a c2       	rjmp	.+1204   	; 0x10ca <_ZN10W5100Class5writeEjh>

00000c16 <_ZN10W5100Class11writeSnPORTEhj>:
     c16:	cf 93       	push	r28
     c18:	df 93       	push	r29
     c1a:	c8 2f       	mov	r28, r24
     c1c:	d6 2f       	mov	r29, r22
     c1e:	47 2f       	mov	r20, r23
     c20:	64 e0       	ldi	r22, 0x04	; 4
     c22:	70 e0       	ldi	r23, 0x00	; 0
     c24:	ef df       	rcall	.-34     	; 0xc04 <_ZN10W5100Class7writeSnEhjh>
     c26:	4d 2f       	mov	r20, r29
     c28:	65 e0       	ldi	r22, 0x05	; 5
     c2a:	70 e0       	ldi	r23, 0x00	; 0
     c2c:	8c 2f       	mov	r24, r28
     c2e:	df 91       	pop	r29
     c30:	cf 91       	pop	r28
     c32:	e8 cf       	rjmp	.-48     	; 0xc04 <_ZN10W5100Class7writeSnEhjh>

00000c34 <_ZN10W5100Class9writeSnIREhh>:
     c34:	46 2f       	mov	r20, r22
     c36:	62 e0       	ldi	r22, 0x02	; 2
     c38:	70 e0       	ldi	r23, 0x00	; 0
     c3a:	e4 cf       	rjmp	.-56     	; 0xc04 <_ZN10W5100Class7writeSnEhjh>

00000c3c <_ZN10W5100Class12writeSnDPORTEhj>:
     c3c:	cf 93       	push	r28
     c3e:	df 93       	push	r29
     c40:	c8 2f       	mov	r28, r24
     c42:	d6 2f       	mov	r29, r22
     c44:	47 2f       	mov	r20, r23
     c46:	60 e1       	ldi	r22, 0x10	; 16
     c48:	70 e0       	ldi	r23, 0x00	; 0
     c4a:	dc df       	rcall	.-72     	; 0xc04 <_ZN10W5100Class7writeSnEhjh>
     c4c:	4d 2f       	mov	r20, r29
     c4e:	61 e1       	ldi	r22, 0x11	; 17
     c50:	70 e0       	ldi	r23, 0x00	; 0
     c52:	8c 2f       	mov	r24, r28
     c54:	df 91       	pop	r29
     c56:	cf 91       	pop	r28
     c58:	d5 cf       	rjmp	.-86     	; 0xc04 <_ZN10W5100Class7writeSnEhjh>

00000c5a <_Z12socketStatush>:
     c5a:	0f 93       	push	r16
     c5c:	1f 93       	push	r17
     c5e:	cf 93       	push	r28
     c60:	df 93       	push	r29
     c62:	00 d0       	rcall	.+0      	; 0xc64 <_Z12socketStatush+0xa>
     c64:	1f 92       	push	r1
     c66:	cd b7       	in	r28, 0x3d	; 61
     c68:	de b7       	in	r29, 0x3e	; 62
     c6a:	18 2f       	mov	r17, r24
     c6c:	00 e0       	ldi	r16, 0x00	; 0
     c6e:	21 e0       	ldi	r18, 0x01	; 1
     c70:	40 e0       	ldi	r20, 0x00	; 0
     c72:	59 e0       	ldi	r21, 0x09	; 9
     c74:	6d e3       	ldi	r22, 0x3D	; 61
     c76:	70 e0       	ldi	r23, 0x00	; 0
     c78:	ce 01       	movw	r24, r28
     c7a:	01 96       	adiw	r24, 0x01	; 1
     c7c:	61 df       	rcall	.-318    	; 0xb40 <_ZN11SPISettingsC1Emhh>
     c7e:	89 81       	ldd	r24, Y+1	; 0x01
     c80:	9a 81       	ldd	r25, Y+2	; 0x02
     c82:	83 df       	rcall	.-250    	; 0xb8a <_ZN8SPIClass16beginTransactionE11SPISettings>
     c84:	63 e0       	ldi	r22, 0x03	; 3
     c86:	70 e0       	ldi	r23, 0x00	; 0
     c88:	81 2f       	mov	r24, r17
     c8a:	b2 df       	rcall	.-156    	; 0xbf0 <_ZN10W5100Class6readSnEhj>
     c8c:	8b 83       	std	Y+3, r24	; 0x03
     c8e:	97 df       	rcall	.-210    	; 0xbbe <_ZN8SPIClass14endTransactionEv>
     c90:	8b 81       	ldd	r24, Y+3	; 0x03
     c92:	0f 90       	pop	r0
     c94:	0f 90       	pop	r0
     c96:	0f 90       	pop	r0
     c98:	df 91       	pop	r29
     c9a:	cf 91       	pop	r28
     c9c:	1f 91       	pop	r17
     c9e:	0f 91       	pop	r16
     ca0:	08 95       	ret

00000ca2 <_Z5closeh>:
     ca2:	0f 93       	push	r16
     ca4:	1f 93       	push	r17
     ca6:	cf 93       	push	r28
     ca8:	df 93       	push	r29
     caa:	00 d0       	rcall	.+0      	; 0xcac <_Z5closeh+0xa>
     cac:	cd b7       	in	r28, 0x3d	; 61
     cae:	de b7       	in	r29, 0x3e	; 62
     cb0:	18 2f       	mov	r17, r24
     cb2:	00 e0       	ldi	r16, 0x00	; 0
     cb4:	21 e0       	ldi	r18, 0x01	; 1
     cb6:	40 e0       	ldi	r20, 0x00	; 0
     cb8:	59 e0       	ldi	r21, 0x09	; 9
     cba:	6d e3       	ldi	r22, 0x3D	; 61
     cbc:	70 e0       	ldi	r23, 0x00	; 0
     cbe:	ce 01       	movw	r24, r28
     cc0:	01 96       	adiw	r24, 0x01	; 1
     cc2:	3e df       	rcall	.-388    	; 0xb40 <_ZN11SPISettingsC1Emhh>
     cc4:	89 81       	ldd	r24, Y+1	; 0x01
     cc6:	9a 81       	ldd	r25, Y+2	; 0x02
     cc8:	60 df       	rcall	.-320    	; 0xb8a <_ZN8SPIClass16beginTransactionE11SPISettings>
     cca:	40 e1       	ldi	r20, 0x10	; 16
     ccc:	50 e0       	ldi	r21, 0x00	; 0
     cce:	61 2f       	mov	r22, r17
     cd0:	88 e4       	ldi	r24, 0x48	; 72
     cd2:	92 e0       	ldi	r25, 0x02	; 2
     cd4:	4f d4       	rcall	.+2206   	; 0x1574 <_ZN10W5100Class9execCmdSnEh7SockCMD>
     cd6:	6f ef       	ldi	r22, 0xFF	; 255
     cd8:	81 2f       	mov	r24, r17
     cda:	ac df       	rcall	.-168    	; 0xc34 <_ZN10W5100Class9writeSnIREhh>
     cdc:	70 df       	rcall	.-288    	; 0xbbe <_ZN8SPIClass14endTransactionEv>
     cde:	0f 90       	pop	r0
     ce0:	0f 90       	pop	r0
     ce2:	df 91       	pop	r29
     ce4:	cf 91       	pop	r28
     ce6:	1f 91       	pop	r17
     ce8:	0f 91       	pop	r16
     cea:	08 95       	ret

00000cec <_Z6sockethhjh>:
     cec:	cf 92       	push	r12
     cee:	df 92       	push	r13
     cf0:	ef 92       	push	r14
     cf2:	ff 92       	push	r15
     cf4:	0f 93       	push	r16
     cf6:	1f 93       	push	r17
     cf8:	cf 93       	push	r28
     cfa:	df 93       	push	r29
     cfc:	00 d0       	rcall	.+0      	; 0xcfe <_Z6sockethhjh+0x12>
     cfe:	cd b7       	in	r28, 0x3d	; 61
     d00:	de b7       	in	r29, 0x3e	; 62
     d02:	9f ef       	ldi	r25, 0xFF	; 255
     d04:	96 0f       	add	r25, r22
     d06:	95 30       	cpi	r25, 0x05	; 5
     d08:	88 f5       	brcc	.+98     	; 0xd6c <_Z6sockethhjh+0x80>
     d0a:	f2 2e       	mov	r15, r18
     d0c:	6a 01       	movw	r12, r20
     d0e:	e6 2e       	mov	r14, r22
     d10:	18 2f       	mov	r17, r24
     d12:	c7 df       	rcall	.-114    	; 0xca2 <_Z5closeh>
     d14:	00 e0       	ldi	r16, 0x00	; 0
     d16:	21 e0       	ldi	r18, 0x01	; 1
     d18:	40 e0       	ldi	r20, 0x00	; 0
     d1a:	59 e0       	ldi	r21, 0x09	; 9
     d1c:	6d e3       	ldi	r22, 0x3D	; 61
     d1e:	70 e0       	ldi	r23, 0x00	; 0
     d20:	ce 01       	movw	r24, r28
     d22:	01 96       	adiw	r24, 0x01	; 1
     d24:	0d df       	rcall	.-486    	; 0xb40 <_ZN11SPISettingsC1Emhh>
     d26:	89 81       	ldd	r24, Y+1	; 0x01
     d28:	9a 81       	ldd	r25, Y+2	; 0x02
     d2a:	2f df       	rcall	.-418    	; 0xb8a <_ZN8SPIClass16beginTransactionE11SPISettings>
     d2c:	4e 2d       	mov	r20, r14
     d2e:	4f 29       	or	r20, r15
     d30:	60 e0       	ldi	r22, 0x00	; 0
     d32:	70 e0       	ldi	r23, 0x00	; 0
     d34:	81 2f       	mov	r24, r17
     d36:	66 df       	rcall	.-308    	; 0xc04 <_ZN10W5100Class7writeSnEhjh>
     d38:	c1 14       	cp	r12, r1
     d3a:	d1 04       	cpc	r13, r1
     d3c:	11 f0       	breq	.+4      	; 0xd42 <_Z6sockethhjh+0x56>
     d3e:	b6 01       	movw	r22, r12
     d40:	0a c0       	rjmp	.+20     	; 0xd56 <_Z6sockethhjh+0x6a>
     d42:	60 91 46 02 	lds	r22, 0x0246	; 0x800246 <_ZL10local_port>
     d46:	70 91 47 02 	lds	r23, 0x0247	; 0x800247 <_ZL10local_port+0x1>
     d4a:	6f 5f       	subi	r22, 0xFF	; 255
     d4c:	7f 4f       	sbci	r23, 0xFF	; 255
     d4e:	70 93 47 02 	sts	0x0247, r23	; 0x800247 <_ZL10local_port+0x1>
     d52:	60 93 46 02 	sts	0x0246, r22	; 0x800246 <_ZL10local_port>
     d56:	81 2f       	mov	r24, r17
     d58:	5e df       	rcall	.-324    	; 0xc16 <_ZN10W5100Class11writeSnPORTEhj>
     d5a:	41 e0       	ldi	r20, 0x01	; 1
     d5c:	50 e0       	ldi	r21, 0x00	; 0
     d5e:	61 2f       	mov	r22, r17
     d60:	88 e4       	ldi	r24, 0x48	; 72
     d62:	92 e0       	ldi	r25, 0x02	; 2
     d64:	07 d4       	rcall	.+2062   	; 0x1574 <_ZN10W5100Class9execCmdSnEh7SockCMD>
     d66:	2b df       	rcall	.-426    	; 0xbbe <_ZN8SPIClass14endTransactionEv>
     d68:	81 e0       	ldi	r24, 0x01	; 1
     d6a:	01 c0       	rjmp	.+2      	; 0xd6e <_Z6sockethhjh+0x82>
     d6c:	80 e0       	ldi	r24, 0x00	; 0
     d6e:	0f 90       	pop	r0
     d70:	0f 90       	pop	r0
     d72:	df 91       	pop	r29
     d74:	cf 91       	pop	r28
     d76:	1f 91       	pop	r17
     d78:	0f 91       	pop	r16
     d7a:	ff 90       	pop	r15
     d7c:	ef 90       	pop	r14
     d7e:	df 90       	pop	r13
     d80:	cf 90       	pop	r12
     d82:	08 95       	ret

00000d84 <_Z4recvhPhi>:
     d84:	af 92       	push	r10
     d86:	bf 92       	push	r11
     d88:	cf 92       	push	r12
     d8a:	df 92       	push	r13
     d8c:	ef 92       	push	r14
     d8e:	ff 92       	push	r15
     d90:	0f 93       	push	r16
     d92:	1f 93       	push	r17
     d94:	cf 93       	push	r28
     d96:	df 93       	push	r29
     d98:	00 d0       	rcall	.+0      	; 0xd9a <_Z4recvhPhi+0x16>
     d9a:	cd b7       	in	r28, 0x3d	; 61
     d9c:	de b7       	in	r29, 0x3e	; 62
     d9e:	18 2f       	mov	r17, r24
     da0:	5b 01       	movw	r10, r22
     da2:	6a 01       	movw	r12, r20
     da4:	00 e0       	ldi	r16, 0x00	; 0
     da6:	21 e0       	ldi	r18, 0x01	; 1
     da8:	40 e0       	ldi	r20, 0x00	; 0
     daa:	59 e0       	ldi	r21, 0x09	; 9
     dac:	6d e3       	ldi	r22, 0x3D	; 61
     dae:	70 e0       	ldi	r23, 0x00	; 0
     db0:	ce 01       	movw	r24, r28
     db2:	01 96       	adiw	r24, 0x01	; 1
     db4:	c5 de       	rcall	.-630    	; 0xb40 <_ZN11SPISettingsC1Emhh>
     db6:	89 81       	ldd	r24, Y+1	; 0x01
     db8:	9a 81       	ldd	r25, Y+2	; 0x02
     dba:	e7 de       	rcall	.-562    	; 0xb8a <_ZN8SPIClass16beginTransactionE11SPISettings>
     dbc:	61 2f       	mov	r22, r17
     dbe:	88 e4       	ldi	r24, 0x48	; 72
     dc0:	92 e0       	ldi	r25, 0x02	; 2
     dc2:	9b d2       	rcall	.+1334   	; 0x12fa <_ZN10W5100Class17getRXReceivedSizeEh>
     dc4:	7c 01       	movw	r14, r24
     dc6:	00 97       	sbiw	r24, 0x00	; 0
     dc8:	99 f4       	brne	.+38     	; 0xdf0 <_Z4recvhPhi+0x6c>
     dca:	63 e0       	ldi	r22, 0x03	; 3
     dcc:	70 e0       	ldi	r23, 0x00	; 0
     dce:	81 2f       	mov	r24, r17
     dd0:	0f df       	rcall	.-482    	; 0xbf0 <_ZN10W5100Class6readSnEhj>
     dd2:	84 31       	cpi	r24, 0x14	; 20
     dd4:	09 f1       	breq	.+66     	; 0xe18 <_Z4recvhPhi+0x94>
     dd6:	88 23       	and	r24, r24
     dd8:	f9 f0       	breq	.+62     	; 0xe18 <_Z4recvhPhi+0x94>
     dda:	21 e0       	ldi	r18, 0x01	; 1
     ddc:	30 e0       	ldi	r19, 0x00	; 0
     dde:	8c 31       	cpi	r24, 0x1C	; 28
     de0:	11 f4       	brne	.+4      	; 0xde6 <_Z4recvhPhi+0x62>
     de2:	20 e0       	ldi	r18, 0x00	; 0
     de4:	30 e0       	ldi	r19, 0x00	; 0
     de6:	ee 24       	eor	r14, r14
     de8:	ff 24       	eor	r15, r15
     dea:	e2 1a       	sub	r14, r18
     dec:	f3 0a       	sbc	r15, r19
     dee:	14 c0       	rjmp	.+40     	; 0xe18 <_Z4recvhPhi+0x94>
     df0:	c8 16       	cp	r12, r24
     df2:	d9 06       	cpc	r13, r25
     df4:	0c f4       	brge	.+2      	; 0xdf8 <_Z4recvhPhi+0x74>
     df6:	76 01       	movw	r14, r12
     df8:	1e 14       	cp	r1, r14
     dfa:	1f 04       	cpc	r1, r15
     dfc:	6c f4       	brge	.+26     	; 0xe18 <_Z4recvhPhi+0x94>
     dfe:	00 e0       	ldi	r16, 0x00	; 0
     e00:	97 01       	movw	r18, r14
     e02:	a5 01       	movw	r20, r10
     e04:	61 2f       	mov	r22, r17
     e06:	88 e4       	ldi	r24, 0x48	; 72
     e08:	92 e0       	ldi	r25, 0x02	; 2
     e0a:	69 d3       	rcall	.+1746   	; 0x14de <_ZN10W5100Class20recv_data_processingEhPhjh>
     e0c:	40 e4       	ldi	r20, 0x40	; 64
     e0e:	50 e0       	ldi	r21, 0x00	; 0
     e10:	61 2f       	mov	r22, r17
     e12:	88 e4       	ldi	r24, 0x48	; 72
     e14:	92 e0       	ldi	r25, 0x02	; 2
     e16:	ae d3       	rcall	.+1884   	; 0x1574 <_ZN10W5100Class9execCmdSnEh7SockCMD>
     e18:	d2 de       	rcall	.-604    	; 0xbbe <_ZN8SPIClass14endTransactionEv>
     e1a:	c7 01       	movw	r24, r14
     e1c:	0f 90       	pop	r0
     e1e:	0f 90       	pop	r0
     e20:	df 91       	pop	r29
     e22:	cf 91       	pop	r28
     e24:	1f 91       	pop	r17
     e26:	0f 91       	pop	r16
     e28:	ff 90       	pop	r15
     e2a:	ef 90       	pop	r14
     e2c:	df 90       	pop	r13
     e2e:	cf 90       	pop	r12
     e30:	bf 90       	pop	r11
     e32:	af 90       	pop	r10
     e34:	08 95       	ret

00000e36 <_Z13recvAvailableh>:
     e36:	0f 93       	push	r16
     e38:	1f 93       	push	r17
     e3a:	cf 93       	push	r28
     e3c:	df 93       	push	r29
     e3e:	00 d0       	rcall	.+0      	; 0xe40 <_Z13recvAvailableh+0xa>
     e40:	00 d0       	rcall	.+0      	; 0xe42 <_Z13recvAvailableh+0xc>
     e42:	cd b7       	in	r28, 0x3d	; 61
     e44:	de b7       	in	r29, 0x3e	; 62
     e46:	18 2f       	mov	r17, r24
     e48:	00 e0       	ldi	r16, 0x00	; 0
     e4a:	21 e0       	ldi	r18, 0x01	; 1
     e4c:	40 e0       	ldi	r20, 0x00	; 0
     e4e:	59 e0       	ldi	r21, 0x09	; 9
     e50:	6d e3       	ldi	r22, 0x3D	; 61
     e52:	70 e0       	ldi	r23, 0x00	; 0
     e54:	ce 01       	movw	r24, r28
     e56:	01 96       	adiw	r24, 0x01	; 1
     e58:	73 de       	rcall	.-794    	; 0xb40 <_ZN11SPISettingsC1Emhh>
     e5a:	89 81       	ldd	r24, Y+1	; 0x01
     e5c:	9a 81       	ldd	r25, Y+2	; 0x02
     e5e:	95 de       	rcall	.-726    	; 0xb8a <_ZN8SPIClass16beginTransactionE11SPISettings>
     e60:	61 2f       	mov	r22, r17
     e62:	88 e4       	ldi	r24, 0x48	; 72
     e64:	92 e0       	ldi	r25, 0x02	; 2
     e66:	49 d2       	rcall	.+1170   	; 0x12fa <_ZN10W5100Class17getRXReceivedSizeEh>
     e68:	8b 83       	std	Y+3, r24	; 0x03
     e6a:	9c 83       	std	Y+4, r25	; 0x04
     e6c:	a8 de       	rcall	.-688    	; 0xbbe <_ZN8SPIClass14endTransactionEv>
     e6e:	8b 81       	ldd	r24, Y+3	; 0x03
     e70:	9c 81       	ldd	r25, Y+4	; 0x04
     e72:	0f 90       	pop	r0
     e74:	0f 90       	pop	r0
     e76:	0f 90       	pop	r0
     e78:	0f 90       	pop	r0
     e7a:	df 91       	pop	r29
     e7c:	cf 91       	pop	r28
     e7e:	1f 91       	pop	r17
     e80:	0f 91       	pop	r16
     e82:	08 95       	ret

00000e84 <_Z4peekhPh>:
     e84:	ef 92       	push	r14
     e86:	ff 92       	push	r15
     e88:	0f 93       	push	r16
     e8a:	1f 93       	push	r17
     e8c:	cf 93       	push	r28
     e8e:	df 93       	push	r29
     e90:	00 d0       	rcall	.+0      	; 0xe92 <_Z4peekhPh+0xe>
     e92:	cd b7       	in	r28, 0x3d	; 61
     e94:	de b7       	in	r29, 0x3e	; 62
     e96:	18 2f       	mov	r17, r24
     e98:	7b 01       	movw	r14, r22
     e9a:	00 e0       	ldi	r16, 0x00	; 0
     e9c:	21 e0       	ldi	r18, 0x01	; 1
     e9e:	40 e0       	ldi	r20, 0x00	; 0
     ea0:	59 e0       	ldi	r21, 0x09	; 9
     ea2:	6d e3       	ldi	r22, 0x3D	; 61
     ea4:	70 e0       	ldi	r23, 0x00	; 0
     ea6:	ce 01       	movw	r24, r28
     ea8:	01 96       	adiw	r24, 0x01	; 1
     eaa:	4a de       	rcall	.-876    	; 0xb40 <_ZN11SPISettingsC1Emhh>
     eac:	89 81       	ldd	r24, Y+1	; 0x01
     eae:	9a 81       	ldd	r25, Y+2	; 0x02
     eb0:	6c de       	rcall	.-808    	; 0xb8a <_ZN8SPIClass16beginTransactionE11SPISettings>
     eb2:	01 e0       	ldi	r16, 0x01	; 1
     eb4:	21 e0       	ldi	r18, 0x01	; 1
     eb6:	30 e0       	ldi	r19, 0x00	; 0
     eb8:	a7 01       	movw	r20, r14
     eba:	61 2f       	mov	r22, r17
     ebc:	88 e4       	ldi	r24, 0x48	; 72
     ebe:	92 e0       	ldi	r25, 0x02	; 2
     ec0:	0e d3       	rcall	.+1564   	; 0x14de <_ZN10W5100Class20recv_data_processingEhPhjh>
     ec2:	7d de       	rcall	.-774    	; 0xbbe <_ZN8SPIClass14endTransactionEv>
     ec4:	81 e0       	ldi	r24, 0x01	; 1
     ec6:	90 e0       	ldi	r25, 0x00	; 0
     ec8:	0f 90       	pop	r0
     eca:	0f 90       	pop	r0
     ecc:	df 91       	pop	r29
     ece:	cf 91       	pop	r28
     ed0:	1f 91       	pop	r17
     ed2:	0f 91       	pop	r16
     ed4:	ff 90       	pop	r15
     ed6:	ef 90       	pop	r14
     ed8:	08 95       	ret

00000eda <_Z10bufferDatahjPKhj>:
     eda:	8f 92       	push	r8
     edc:	9f 92       	push	r9
     ede:	af 92       	push	r10
     ee0:	bf 92       	push	r11
     ee2:	df 92       	push	r13
     ee4:	ef 92       	push	r14
     ee6:	ff 92       	push	r15
     ee8:	0f 93       	push	r16
     eea:	1f 93       	push	r17
     eec:	cf 93       	push	r28
     eee:	df 93       	push	r29
     ef0:	00 d0       	rcall	.+0      	; 0xef2 <_Z10bufferDatahjPKhj+0x18>
     ef2:	cd b7       	in	r28, 0x3d	; 61
     ef4:	de b7       	in	r29, 0x3e	; 62
     ef6:	d8 2e       	mov	r13, r24
     ef8:	5b 01       	movw	r10, r22
     efa:	4a 01       	movw	r8, r20
     efc:	79 01       	movw	r14, r18
     efe:	00 e0       	ldi	r16, 0x00	; 0
     f00:	21 e0       	ldi	r18, 0x01	; 1
     f02:	40 e0       	ldi	r20, 0x00	; 0
     f04:	59 e0       	ldi	r21, 0x09	; 9
     f06:	6d e3       	ldi	r22, 0x3D	; 61
     f08:	70 e0       	ldi	r23, 0x00	; 0
     f0a:	ce 01       	movw	r24, r28
     f0c:	01 96       	adiw	r24, 0x01	; 1
     f0e:	18 de       	rcall	.-976    	; 0xb40 <_ZN11SPISettingsC1Emhh>
     f10:	89 81       	ldd	r24, Y+1	; 0x01
     f12:	9a 81       	ldd	r25, Y+2	; 0x02
     f14:	3a de       	rcall	.-908    	; 0xb8a <_ZN8SPIClass16beginTransactionE11SPISettings>
     f16:	6d 2d       	mov	r22, r13
     f18:	88 e4       	ldi	r24, 0x48	; 72
     f1a:	92 e0       	ldi	r25, 0x02	; 2
     f1c:	be d1       	rcall	.+892    	; 0x129a <_ZN10W5100Class13getTXFreeSizeEh>
     f1e:	8e 15       	cp	r24, r14
     f20:	9f 05       	cpc	r25, r15
     f22:	28 f4       	brcc	.+10     	; 0xf2e <_Z10bufferDatahjPKhj+0x54>
     f24:	6d 2d       	mov	r22, r13
     f26:	88 e4       	ldi	r24, 0x48	; 72
     f28:	92 e0       	ldi	r25, 0x02	; 2
     f2a:	b7 d1       	rcall	.+878    	; 0x129a <_ZN10W5100Class13getTXFreeSizeEh>
     f2c:	7c 01       	movw	r14, r24
     f2e:	87 01       	movw	r16, r14
     f30:	94 01       	movw	r18, r8
     f32:	a5 01       	movw	r20, r10
     f34:	6d 2d       	mov	r22, r13
     f36:	88 e4       	ldi	r24, 0x48	; 72
     f38:	92 e0       	ldi	r25, 0x02	; 2
     f3a:	f9 d1       	rcall	.+1010   	; 0x132e <_ZN10W5100Class27send_data_processing_offsetEhjPKhj>
     f3c:	40 de       	rcall	.-896    	; 0xbbe <_ZN8SPIClass14endTransactionEv>
     f3e:	c7 01       	movw	r24, r14
     f40:	0f 90       	pop	r0
     f42:	0f 90       	pop	r0
     f44:	df 91       	pop	r29
     f46:	cf 91       	pop	r28
     f48:	1f 91       	pop	r17
     f4a:	0f 91       	pop	r16
     f4c:	ff 90       	pop	r15
     f4e:	ef 90       	pop	r14
     f50:	df 90       	pop	r13
     f52:	bf 90       	pop	r11
     f54:	af 90       	pop	r10
     f56:	9f 90       	pop	r9
     f58:	8f 90       	pop	r8
     f5a:	08 95       	ret

00000f5c <_Z8startUDPhPhj>:
     f5c:	cf 92       	push	r12
     f5e:	df 92       	push	r13
     f60:	ef 92       	push	r14
     f62:	ff 92       	push	r15
     f64:	0f 93       	push	r16
     f66:	1f 93       	push	r17
     f68:	cf 93       	push	r28
     f6a:	df 93       	push	r29
     f6c:	00 d0       	rcall	.+0      	; 0xf6e <_Z8startUDPhPhj+0x12>
     f6e:	cd b7       	in	r28, 0x3d	; 61
     f70:	de b7       	in	r29, 0x3e	; 62
     f72:	fb 01       	movw	r30, r22
     f74:	90 81       	ld	r25, Z
     f76:	91 11       	cpse	r25, r1
     f78:	09 c0       	rjmp	.+18     	; 0xf8c <_Z8startUDPhPhj+0x30>
     f7a:	91 81       	ldd	r25, Z+1	; 0x01
     f7c:	91 11       	cpse	r25, r1
     f7e:	06 c0       	rjmp	.+12     	; 0xf8c <_Z8startUDPhPhj+0x30>
     f80:	92 81       	ldd	r25, Z+2	; 0x02
     f82:	91 11       	cpse	r25, r1
     f84:	03 c0       	rjmp	.+6      	; 0xf8c <_Z8startUDPhPhj+0x30>
     f86:	93 81       	ldd	r25, Z+3	; 0x03
     f88:	99 23       	and	r25, r25
     f8a:	e1 f0       	breq	.+56     	; 0xfc4 <_Z8startUDPhPhj+0x68>
     f8c:	41 15       	cp	r20, r1
     f8e:	51 05       	cpc	r21, r1
     f90:	c9 f0       	breq	.+50     	; 0xfc4 <_Z8startUDPhPhj+0x68>
     f92:	6a 01       	movw	r12, r20
     f94:	7f 01       	movw	r14, r30
     f96:	18 2f       	mov	r17, r24
     f98:	00 e0       	ldi	r16, 0x00	; 0
     f9a:	21 e0       	ldi	r18, 0x01	; 1
     f9c:	40 e0       	ldi	r20, 0x00	; 0
     f9e:	59 e0       	ldi	r21, 0x09	; 9
     fa0:	6d e3       	ldi	r22, 0x3D	; 61
     fa2:	70 e0       	ldi	r23, 0x00	; 0
     fa4:	ce 01       	movw	r24, r28
     fa6:	01 96       	adiw	r24, 0x01	; 1
     fa8:	cb dd       	rcall	.-1130   	; 0xb40 <_ZN11SPISettingsC1Emhh>
     faa:	89 81       	ldd	r24, Y+1	; 0x01
     fac:	9a 81       	ldd	r25, Y+2	; 0x02
     fae:	ed dd       	rcall	.-1062   	; 0xb8a <_ZN8SPIClass16beginTransactionE11SPISettings>
     fb0:	b7 01       	movw	r22, r14
     fb2:	81 2f       	mov	r24, r17
     fb4:	15 de       	rcall	.-982    	; 0xbe0 <_ZN10W5100Class11writeSnDIPREhPh>
     fb6:	b6 01       	movw	r22, r12
     fb8:	81 2f       	mov	r24, r17
     fba:	40 de       	rcall	.-896    	; 0xc3c <_ZN10W5100Class12writeSnDPORTEhj>
     fbc:	00 de       	rcall	.-1024   	; 0xbbe <_ZN8SPIClass14endTransactionEv>
     fbe:	81 e0       	ldi	r24, 0x01	; 1
     fc0:	90 e0       	ldi	r25, 0x00	; 0
     fc2:	02 c0       	rjmp	.+4      	; 0xfc8 <_Z8startUDPhPhj+0x6c>
     fc4:	80 e0       	ldi	r24, 0x00	; 0
     fc6:	90 e0       	ldi	r25, 0x00	; 0
     fc8:	0f 90       	pop	r0
     fca:	0f 90       	pop	r0
     fcc:	df 91       	pop	r29
     fce:	cf 91       	pop	r28
     fd0:	1f 91       	pop	r17
     fd2:	0f 91       	pop	r16
     fd4:	ff 90       	pop	r15
     fd6:	ef 90       	pop	r14
     fd8:	df 90       	pop	r13
     fda:	cf 90       	pop	r12
     fdc:	08 95       	ret

00000fde <_Z7sendUDPh>:
     fde:	0f 93       	push	r16
     fe0:	1f 93       	push	r17
     fe2:	cf 93       	push	r28
     fe4:	df 93       	push	r29
     fe6:	00 d0       	rcall	.+0      	; 0xfe8 <_Z7sendUDPh+0xa>
     fe8:	cd b7       	in	r28, 0x3d	; 61
     fea:	de b7       	in	r29, 0x3e	; 62
     fec:	18 2f       	mov	r17, r24
     fee:	00 e0       	ldi	r16, 0x00	; 0
     ff0:	21 e0       	ldi	r18, 0x01	; 1
     ff2:	40 e0       	ldi	r20, 0x00	; 0
     ff4:	59 e0       	ldi	r21, 0x09	; 9
     ff6:	6d e3       	ldi	r22, 0x3D	; 61
     ff8:	70 e0       	ldi	r23, 0x00	; 0
     ffa:	ce 01       	movw	r24, r28
     ffc:	01 96       	adiw	r24, 0x01	; 1
     ffe:	a0 dd       	rcall	.-1216   	; 0xb40 <_ZN11SPISettingsC1Emhh>
    1000:	89 81       	ldd	r24, Y+1	; 0x01
    1002:	9a 81       	ldd	r25, Y+2	; 0x02
    1004:	c2 dd       	rcall	.-1148   	; 0xb8a <_ZN8SPIClass16beginTransactionE11SPISettings>
    1006:	40 e2       	ldi	r20, 0x20	; 32
    1008:	50 e0       	ldi	r21, 0x00	; 0
    100a:	61 2f       	mov	r22, r17
    100c:	88 e4       	ldi	r24, 0x48	; 72
    100e:	92 e0       	ldi	r25, 0x02	; 2
    1010:	b1 d2       	rcall	.+1378   	; 0x1574 <_ZN10W5100Class9execCmdSnEh7SockCMD>
    1012:	81 2f       	mov	r24, r17
    1014:	f4 dd       	rcall	.-1048   	; 0xbfe <_ZN10W5100Class8readSnIREh>
    1016:	84 fd       	sbrc	r24, 4
    1018:	1b c0       	rjmp	.+54     	; 0x1050 <_Z7sendUDPh+0x72>
    101a:	81 2f       	mov	r24, r17
    101c:	f0 dd       	rcall	.-1056   	; 0xbfe <_ZN10W5100Class8readSnIREh>
    101e:	83 ff       	sbrs	r24, 3
    1020:	07 c0       	rjmp	.+14     	; 0x1030 <_Z7sendUDPh+0x52>
    1022:	68 e1       	ldi	r22, 0x18	; 24
    1024:	81 2f       	mov	r24, r17
    1026:	06 de       	rcall	.-1012   	; 0xc34 <_ZN10W5100Class9writeSnIREhh>
    1028:	ca dd       	rcall	.-1132   	; 0xbbe <_ZN8SPIClass14endTransactionEv>
    102a:	80 e0       	ldi	r24, 0x00	; 0
    102c:	90 e0       	ldi	r25, 0x00	; 0
    102e:	16 c0       	rjmp	.+44     	; 0x105c <_Z7sendUDPh+0x7e>
    1030:	c6 dd       	rcall	.-1140   	; 0xbbe <_ZN8SPIClass14endTransactionEv>
    1032:	0e 94 95 14 	call	0x292a	; 0x292a <yield>
    1036:	00 e0       	ldi	r16, 0x00	; 0
    1038:	21 e0       	ldi	r18, 0x01	; 1
    103a:	40 e0       	ldi	r20, 0x00	; 0
    103c:	59 e0       	ldi	r21, 0x09	; 9
    103e:	6d e3       	ldi	r22, 0x3D	; 61
    1040:	70 e0       	ldi	r23, 0x00	; 0
    1042:	ce 01       	movw	r24, r28
    1044:	01 96       	adiw	r24, 0x01	; 1
    1046:	7c dd       	rcall	.-1288   	; 0xb40 <_ZN11SPISettingsC1Emhh>
    1048:	89 81       	ldd	r24, Y+1	; 0x01
    104a:	9a 81       	ldd	r25, Y+2	; 0x02
    104c:	9e dd       	rcall	.-1220   	; 0xb8a <_ZN8SPIClass16beginTransactionE11SPISettings>
    104e:	e1 cf       	rjmp	.-62     	; 0x1012 <_Z7sendUDPh+0x34>
    1050:	60 e1       	ldi	r22, 0x10	; 16
    1052:	81 2f       	mov	r24, r17
    1054:	ef dd       	rcall	.-1058   	; 0xc34 <_ZN10W5100Class9writeSnIREhh>
    1056:	b3 dd       	rcall	.-1178   	; 0xbbe <_ZN8SPIClass14endTransactionEv>
    1058:	81 e0       	ldi	r24, 0x01	; 1
    105a:	90 e0       	ldi	r25, 0x00	; 0
    105c:	0f 90       	pop	r0
    105e:	0f 90       	pop	r0
    1060:	df 91       	pop	r29
    1062:	cf 91       	pop	r28
    1064:	1f 91       	pop	r17
    1066:	0f 91       	pop	r16
    1068:	08 95       	ret

0000106a <_ZN8SPIClass8transferEh>:
    106a:	8e bd       	out	0x2e, r24	; 46
    106c:	00 00       	nop
    106e:	0d b4       	in	r0, 0x2d	; 45
    1070:	07 fe       	sbrs	r0, 7
    1072:	fd cf       	rjmp	.-6      	; 0x106e <_ZN8SPIClass8transferEh+0x4>
    1074:	8e b5       	in	r24, 0x2e	; 46
    1076:	08 95       	ret

00001078 <_ZN10W5100Class5setSSEv>:
    1078:	e6 e8       	ldi	r30, 0x86	; 134
    107a:	f0 e0       	ldi	r31, 0x00	; 0
    107c:	84 91       	lpm	r24, Z
    107e:	ea e9       	ldi	r30, 0x9A	; 154
    1080:	f0 e0       	ldi	r31, 0x00	; 0
    1082:	e4 91       	lpm	r30, Z
    1084:	f0 e0       	ldi	r31, 0x00	; 0
    1086:	ee 0f       	add	r30, r30
    1088:	ff 1f       	adc	r31, r31
    108a:	e2 55       	subi	r30, 0x52	; 82
    108c:	ff 4f       	sbci	r31, 0xFF	; 255
    108e:	a5 91       	lpm	r26, Z+
    1090:	b4 91       	lpm	r27, Z
    1092:	ec 91       	ld	r30, X
    1094:	2e 2f       	mov	r18, r30
    1096:	30 e0       	ldi	r19, 0x00	; 0
    1098:	e8 2f       	mov	r30, r24
    109a:	f0 e0       	ldi	r31, 0x00	; 0
    109c:	e0 95       	com	r30
    109e:	f0 95       	com	r31
    10a0:	e2 23       	and	r30, r18
    10a2:	f3 23       	and	r31, r19
    10a4:	ec 93       	st	X, r30
    10a6:	08 95       	ret

000010a8 <_ZN10W5100Class7resetSSEv>:
    10a8:	e6 e8       	ldi	r30, 0x86	; 134
    10aa:	f0 e0       	ldi	r31, 0x00	; 0
    10ac:	84 91       	lpm	r24, Z
    10ae:	ea e9       	ldi	r30, 0x9A	; 154
    10b0:	f0 e0       	ldi	r31, 0x00	; 0
    10b2:	e4 91       	lpm	r30, Z
    10b4:	f0 e0       	ldi	r31, 0x00	; 0
    10b6:	ee 0f       	add	r30, r30
    10b8:	ff 1f       	adc	r31, r31
    10ba:	e2 55       	subi	r30, 0x52	; 82
    10bc:	ff 4f       	sbci	r31, 0xFF	; 255
    10be:	a5 91       	lpm	r26, Z+
    10c0:	b4 91       	lpm	r27, Z
    10c2:	ec 91       	ld	r30, X
    10c4:	e8 2b       	or	r30, r24
    10c6:	ec 93       	st	X, r30
    10c8:	08 95       	ret

000010ca <_ZN10W5100Class5writeEjh>:
    10ca:	1f 93       	push	r17
    10cc:	cf 93       	push	r28
    10ce:	df 93       	push	r29
    10d0:	00 d0       	rcall	.+0      	; 0x10d2 <_ZN10W5100Class5writeEjh+0x8>
    10d2:	cd b7       	in	r28, 0x3d	; 61
    10d4:	de b7       	in	r29, 0x3e	; 62
    10d6:	18 2f       	mov	r17, r24
    10d8:	6a 83       	std	Y+2, r22	; 0x02
    10da:	99 83       	std	Y+1, r25	; 0x01
    10dc:	cd df       	rcall	.-102    	; 0x1078 <_ZN10W5100Class5setSSEv>
    10de:	80 ef       	ldi	r24, 0xF0	; 240
    10e0:	c4 df       	rcall	.-120    	; 0x106a <_ZN8SPIClass8transferEh>
    10e2:	99 81       	ldd	r25, Y+1	; 0x01
    10e4:	89 2f       	mov	r24, r25
    10e6:	c1 df       	rcall	.-126    	; 0x106a <_ZN8SPIClass8transferEh>
    10e8:	81 2f       	mov	r24, r17
    10ea:	bf df       	rcall	.-130    	; 0x106a <_ZN8SPIClass8transferEh>
    10ec:	6a 81       	ldd	r22, Y+2	; 0x02
    10ee:	86 2f       	mov	r24, r22
    10f0:	bc df       	rcall	.-136    	; 0x106a <_ZN8SPIClass8transferEh>
    10f2:	da df       	rcall	.-76     	; 0x10a8 <_ZN10W5100Class7resetSSEv>
    10f4:	81 e0       	ldi	r24, 0x01	; 1
    10f6:	0f 90       	pop	r0
    10f8:	0f 90       	pop	r0
    10fa:	df 91       	pop	r29
    10fc:	cf 91       	pop	r28
    10fe:	1f 91       	pop	r17
    1100:	08 95       	ret

00001102 <_ZN10W5100Class4initEv>:
    1102:	cf 93       	push	r28
    1104:	df 93       	push	r29
    1106:	ec 01       	movw	r28, r24
    1108:	6c e2       	ldi	r22, 0x2C	; 44
    110a:	71 e0       	ldi	r23, 0x01	; 1
    110c:	80 e0       	ldi	r24, 0x00	; 0
    110e:	90 e0       	ldi	r25, 0x00	; 0
    1110:	0e 94 1f 15 	call	0x2a3e	; 0x2a3e <delay>
    1114:	84 dc       	rcall	.-1784   	; 0xa1e <_ZN8SPIClass5beginEv>
    1116:	e6 e8       	ldi	r30, 0x86	; 134
    1118:	f0 e0       	ldi	r31, 0x00	; 0
    111a:	84 91       	lpm	r24, Z
    111c:	ea e9       	ldi	r30, 0x9A	; 154
    111e:	f0 e0       	ldi	r31, 0x00	; 0
    1120:	e4 91       	lpm	r30, Z
    1122:	f0 e0       	ldi	r31, 0x00	; 0
    1124:	ee 0f       	add	r30, r30
    1126:	ff 1f       	adc	r31, r31
    1128:	e8 54       	subi	r30, 0x48	; 72
    112a:	ff 4f       	sbci	r31, 0xFF	; 255
    112c:	a5 91       	lpm	r26, Z+
    112e:	b4 91       	lpm	r27, Z
    1130:	ec 91       	ld	r30, X
    1132:	e8 2b       	or	r30, r24
    1134:	ec 93       	st	X, r30
    1136:	80 91 3c 02 	lds	r24, 0x023C	; 0x80023c <_ZN8SPIClass13interruptModeE>
    113a:	88 23       	and	r24, r24
    113c:	99 f0       	breq	.+38     	; 0x1164 <_ZN10W5100Class4initEv+0x62>
    113e:	2f b7       	in	r18, 0x3f	; 63
    1140:	f8 94       	cli
    1142:	80 91 3c 02 	lds	r24, 0x023C	; 0x80023c <_ZN8SPIClass13interruptModeE>
    1146:	81 30       	cpi	r24, 0x01	; 1
    1148:	59 f4       	brne	.+22     	; 0x1160 <_ZN10W5100Class4initEv+0x5e>
    114a:	8d b3       	in	r24, 0x1d	; 29
    114c:	80 93 3a 02 	sts	0x023A, r24	; 0x80023a <_ZN8SPIClass13interruptSaveE>
    1150:	9d b3       	in	r25, 0x1d	; 29
    1152:	80 91 3b 02 	lds	r24, 0x023B	; 0x80023b <_ZN8SPIClass13interruptMaskE>
    1156:	80 95       	com	r24
    1158:	89 23       	and	r24, r25
    115a:	8d bb       	out	0x1d, r24	; 29
    115c:	2f bf       	out	0x3f, r18	; 63
    115e:	02 c0       	rjmp	.+4      	; 0x1164 <_ZN10W5100Class4initEv+0x62>
    1160:	20 93 3a 02 	sts	0x023A, r18	; 0x80023a <_ZN8SPIClass13interruptSaveE>
    1164:	80 e5       	ldi	r24, 0x50	; 80
    1166:	8c bd       	out	0x2c, r24	; 44
    1168:	1d bc       	out	0x2d, r1	; 45
    116a:	60 e8       	ldi	r22, 0x80	; 128
    116c:	80 e0       	ldi	r24, 0x00	; 0
    116e:	90 e0       	ldi	r25, 0x00	; 0
    1170:	ac df       	rcall	.-168    	; 0x10ca <_ZN10W5100Class5writeEjh>
    1172:	65 e5       	ldi	r22, 0x55	; 85
    1174:	8b e1       	ldi	r24, 0x1B	; 27
    1176:	90 e0       	ldi	r25, 0x00	; 0
    1178:	a8 df       	rcall	.-176    	; 0x10ca <_ZN10W5100Class5writeEjh>
    117a:	65 e5       	ldi	r22, 0x55	; 85
    117c:	8a e1       	ldi	r24, 0x1A	; 26
    117e:	90 e0       	ldi	r25, 0x00	; 0
    1180:	a4 df       	rcall	.-184    	; 0x10ca <_ZN10W5100Class5writeEjh>
    1182:	80 91 3c 02 	lds	r24, 0x023C	; 0x80023c <_ZN8SPIClass13interruptModeE>
    1186:	88 23       	and	r24, r24
    1188:	51 f0       	breq	.+20     	; 0x119e <_ZN10W5100Class4initEv+0x9c>
    118a:	9f b7       	in	r25, 0x3f	; 63
    118c:	f8 94       	cli
    118e:	20 91 3c 02 	lds	r18, 0x023C	; 0x80023c <_ZN8SPIClass13interruptModeE>
    1192:	80 91 3a 02 	lds	r24, 0x023A	; 0x80023a <_ZN8SPIClass13interruptSaveE>
    1196:	21 30       	cpi	r18, 0x01	; 1
    1198:	29 f5       	brne	.+74     	; 0x11e4 <_ZN10W5100Class4initEv+0xe2>
    119a:	8d bb       	out	0x1d, r24	; 29
    119c:	9f bf       	out	0x3f, r25	; 63
    119e:	80 e0       	ldi	r24, 0x00	; 0
    11a0:	90 e4       	ldi	r25, 0x40	; 64
    11a2:	99 83       	std	Y+1, r25	; 0x01
    11a4:	88 83       	st	Y, r24
    11a6:	80 e0       	ldi	r24, 0x00	; 0
    11a8:	90 e6       	ldi	r25, 0x60	; 96
    11aa:	99 87       	std	Y+9, r25	; 0x09
    11ac:	88 87       	std	Y+8, r24	; 0x08
    11ae:	80 e0       	ldi	r24, 0x00	; 0
    11b0:	98 e4       	ldi	r25, 0x48	; 72
    11b2:	9b 83       	std	Y+3, r25	; 0x03
    11b4:	8a 83       	std	Y+2, r24	; 0x02
    11b6:	80 e0       	ldi	r24, 0x00	; 0
    11b8:	98 e6       	ldi	r25, 0x68	; 104
    11ba:	9b 87       	std	Y+11, r25	; 0x0b
    11bc:	8a 87       	std	Y+10, r24	; 0x0a
    11be:	80 e0       	ldi	r24, 0x00	; 0
    11c0:	90 e5       	ldi	r25, 0x50	; 80
    11c2:	9d 83       	std	Y+5, r25	; 0x05
    11c4:	8c 83       	std	Y+4, r24	; 0x04
    11c6:	80 e0       	ldi	r24, 0x00	; 0
    11c8:	90 e7       	ldi	r25, 0x70	; 112
    11ca:	9d 87       	std	Y+13, r25	; 0x0d
    11cc:	8c 87       	std	Y+12, r24	; 0x0c
    11ce:	80 e0       	ldi	r24, 0x00	; 0
    11d0:	98 e5       	ldi	r25, 0x58	; 88
    11d2:	9f 83       	std	Y+7, r25	; 0x07
    11d4:	8e 83       	std	Y+6, r24	; 0x06
    11d6:	80 e0       	ldi	r24, 0x00	; 0
    11d8:	98 e7       	ldi	r25, 0x78	; 120
    11da:	9f 87       	std	Y+15, r25	; 0x0f
    11dc:	8e 87       	std	Y+14, r24	; 0x0e
    11de:	df 91       	pop	r29
    11e0:	cf 91       	pop	r28
    11e2:	08 95       	ret
    11e4:	8f bf       	out	0x3f, r24	; 63
    11e6:	db cf       	rjmp	.-74     	; 0x119e <_ZN10W5100Class4initEv+0x9c>

000011e8 <_ZN10W5100Class5writeEjPKhj>:
    11e8:	cf 92       	push	r12
    11ea:	df 92       	push	r13
    11ec:	ef 92       	push	r14
    11ee:	ff 92       	push	r15
    11f0:	0f 93       	push	r16
    11f2:	1f 93       	push	r17
    11f4:	cf 93       	push	r28
    11f6:	df 93       	push	r29
    11f8:	ec 01       	movw	r28, r24
    11fa:	7a 01       	movw	r14, r20
    11fc:	8b 01       	movw	r16, r22
    11fe:	6c 01       	movw	r12, r24
    1200:	c4 0e       	add	r12, r20
    1202:	d5 1e       	adc	r13, r21
    1204:	cc 15       	cp	r28, r12
    1206:	dd 05       	cpc	r29, r13
    1208:	71 f0       	breq	.+28     	; 0x1226 <_ZN10W5100Class5writeEjPKhj+0x3e>
    120a:	36 df       	rcall	.-404    	; 0x1078 <_ZN10W5100Class5setSSEv>
    120c:	80 ef       	ldi	r24, 0xF0	; 240
    120e:	2d df       	rcall	.-422    	; 0x106a <_ZN8SPIClass8transferEh>
    1210:	8d 2f       	mov	r24, r29
    1212:	2b df       	rcall	.-426    	; 0x106a <_ZN8SPIClass8transferEh>
    1214:	8c 2f       	mov	r24, r28
    1216:	29 df       	rcall	.-430    	; 0x106a <_ZN8SPIClass8transferEh>
    1218:	21 96       	adiw	r28, 0x01	; 1
    121a:	f8 01       	movw	r30, r16
    121c:	81 91       	ld	r24, Z+
    121e:	8f 01       	movw	r16, r30
    1220:	24 df       	rcall	.-440    	; 0x106a <_ZN8SPIClass8transferEh>
    1222:	42 df       	rcall	.-380    	; 0x10a8 <_ZN10W5100Class7resetSSEv>
    1224:	ef cf       	rjmp	.-34     	; 0x1204 <_ZN10W5100Class5writeEjPKhj+0x1c>
    1226:	c7 01       	movw	r24, r14
    1228:	df 91       	pop	r29
    122a:	cf 91       	pop	r28
    122c:	1f 91       	pop	r17
    122e:	0f 91       	pop	r16
    1230:	ff 90       	pop	r15
    1232:	ef 90       	pop	r14
    1234:	df 90       	pop	r13
    1236:	cf 90       	pop	r12
    1238:	08 95       	ret

0000123a <_ZN10W5100Class4readEj>:
    123a:	1f 93       	push	r17
    123c:	cf 93       	push	r28
    123e:	df 93       	push	r29
    1240:	1f 92       	push	r1
    1242:	cd b7       	in	r28, 0x3d	; 61
    1244:	de b7       	in	r29, 0x3e	; 62
    1246:	18 2f       	mov	r17, r24
    1248:	99 83       	std	Y+1, r25	; 0x01
    124a:	16 df       	rcall	.-468    	; 0x1078 <_ZN10W5100Class5setSSEv>
    124c:	8f e0       	ldi	r24, 0x0F	; 15
    124e:	0d df       	rcall	.-486    	; 0x106a <_ZN8SPIClass8transferEh>
    1250:	99 81       	ldd	r25, Y+1	; 0x01
    1252:	89 2f       	mov	r24, r25
    1254:	0a df       	rcall	.-492    	; 0x106a <_ZN8SPIClass8transferEh>
    1256:	81 2f       	mov	r24, r17
    1258:	08 df       	rcall	.-496    	; 0x106a <_ZN8SPIClass8transferEh>
    125a:	80 e0       	ldi	r24, 0x00	; 0
    125c:	06 df       	rcall	.-500    	; 0x106a <_ZN8SPIClass8transferEh>
    125e:	89 83       	std	Y+1, r24	; 0x01
    1260:	23 df       	rcall	.-442    	; 0x10a8 <_ZN10W5100Class7resetSSEv>
    1262:	89 81       	ldd	r24, Y+1	; 0x01
    1264:	0f 90       	pop	r0
    1266:	df 91       	pop	r29
    1268:	cf 91       	pop	r28
    126a:	1f 91       	pop	r17
    126c:	08 95       	ret

0000126e <_ZN10W5100Class12readSnTX_FSREh>:
    126e:	1f 93       	push	r17
    1270:	cf 93       	push	r28
    1272:	df 93       	push	r29
    1274:	18 2f       	mov	r17, r24
    1276:	60 e2       	ldi	r22, 0x20	; 32
    1278:	70 e0       	ldi	r23, 0x00	; 0
    127a:	ba dc       	rcall	.-1676   	; 0xbf0 <_ZN10W5100Class6readSnEhj>
    127c:	c8 2f       	mov	r28, r24
    127e:	d0 e0       	ldi	r29, 0x00	; 0
    1280:	61 e2       	ldi	r22, 0x21	; 33
    1282:	70 e0       	ldi	r23, 0x00	; 0
    1284:	81 2f       	mov	r24, r17
    1286:	b4 dc       	rcall	.-1688   	; 0xbf0 <_ZN10W5100Class6readSnEhj>
    1288:	dc 2f       	mov	r29, r28
    128a:	cc 27       	eor	r28, r28
    128c:	9e 01       	movw	r18, r28
    128e:	28 2b       	or	r18, r24
    1290:	c9 01       	movw	r24, r18
    1292:	df 91       	pop	r29
    1294:	cf 91       	pop	r28
    1296:	1f 91       	pop	r17
    1298:	08 95       	ret

0000129a <_ZN10W5100Class13getTXFreeSizeEh>:
    129a:	ff 92       	push	r15
    129c:	0f 93       	push	r16
    129e:	1f 93       	push	r17
    12a0:	cf 93       	push	r28
    12a2:	df 93       	push	r29
    12a4:	f6 2e       	mov	r15, r22
    12a6:	c0 e0       	ldi	r28, 0x00	; 0
    12a8:	d0 e0       	ldi	r29, 0x00	; 0
    12aa:	8f 2d       	mov	r24, r15
    12ac:	e0 df       	rcall	.-64     	; 0x126e <_ZN10W5100Class12readSnTX_FSREh>
    12ae:	8c 01       	movw	r16, r24
    12b0:	89 2b       	or	r24, r25
    12b2:	19 f0       	breq	.+6      	; 0x12ba <_ZN10W5100Class13getTXFreeSizeEh+0x20>
    12b4:	8f 2d       	mov	r24, r15
    12b6:	db df       	rcall	.-74     	; 0x126e <_ZN10W5100Class12readSnTX_FSREh>
    12b8:	ec 01       	movw	r28, r24
    12ba:	c0 17       	cp	r28, r16
    12bc:	d1 07       	cpc	r29, r17
    12be:	a9 f7       	brne	.-22     	; 0x12aa <_ZN10W5100Class13getTXFreeSizeEh+0x10>
    12c0:	ce 01       	movw	r24, r28
    12c2:	df 91       	pop	r29
    12c4:	cf 91       	pop	r28
    12c6:	1f 91       	pop	r17
    12c8:	0f 91       	pop	r16
    12ca:	ff 90       	pop	r15
    12cc:	08 95       	ret

000012ce <_ZN10W5100Class12readSnRX_RSREh>:
    12ce:	1f 93       	push	r17
    12d0:	cf 93       	push	r28
    12d2:	df 93       	push	r29
    12d4:	18 2f       	mov	r17, r24
    12d6:	66 e2       	ldi	r22, 0x26	; 38
    12d8:	70 e0       	ldi	r23, 0x00	; 0
    12da:	8a dc       	rcall	.-1772   	; 0xbf0 <_ZN10W5100Class6readSnEhj>
    12dc:	c8 2f       	mov	r28, r24
    12de:	d0 e0       	ldi	r29, 0x00	; 0
    12e0:	67 e2       	ldi	r22, 0x27	; 39
    12e2:	70 e0       	ldi	r23, 0x00	; 0
    12e4:	81 2f       	mov	r24, r17
    12e6:	84 dc       	rcall	.-1784   	; 0xbf0 <_ZN10W5100Class6readSnEhj>
    12e8:	dc 2f       	mov	r29, r28
    12ea:	cc 27       	eor	r28, r28
    12ec:	9e 01       	movw	r18, r28
    12ee:	28 2b       	or	r18, r24
    12f0:	c9 01       	movw	r24, r18
    12f2:	df 91       	pop	r29
    12f4:	cf 91       	pop	r28
    12f6:	1f 91       	pop	r17
    12f8:	08 95       	ret

000012fa <_ZN10W5100Class17getRXReceivedSizeEh>:
    12fa:	ff 92       	push	r15
    12fc:	0f 93       	push	r16
    12fe:	1f 93       	push	r17
    1300:	cf 93       	push	r28
    1302:	df 93       	push	r29
    1304:	f6 2e       	mov	r15, r22
    1306:	c0 e0       	ldi	r28, 0x00	; 0
    1308:	d0 e0       	ldi	r29, 0x00	; 0
    130a:	8f 2d       	mov	r24, r15
    130c:	e0 df       	rcall	.-64     	; 0x12ce <_ZN10W5100Class12readSnRX_RSREh>
    130e:	8c 01       	movw	r16, r24
    1310:	89 2b       	or	r24, r25
    1312:	19 f0       	breq	.+6      	; 0x131a <_ZN10W5100Class17getRXReceivedSizeEh+0x20>
    1314:	8f 2d       	mov	r24, r15
    1316:	db df       	rcall	.-74     	; 0x12ce <_ZN10W5100Class12readSnRX_RSREh>
    1318:	ec 01       	movw	r28, r24
    131a:	c0 17       	cp	r28, r16
    131c:	d1 07       	cpc	r29, r17
    131e:	a9 f7       	brne	.-22     	; 0x130a <_ZN10W5100Class17getRXReceivedSizeEh+0x10>
    1320:	ce 01       	movw	r24, r28
    1322:	df 91       	pop	r29
    1324:	cf 91       	pop	r28
    1326:	1f 91       	pop	r17
    1328:	0f 91       	pop	r16
    132a:	ff 90       	pop	r15
    132c:	08 95       	ret

0000132e <_ZN10W5100Class27send_data_processing_offsetEhjPKhj>:
    132e:	6f 92       	push	r6
    1330:	7f 92       	push	r7
    1332:	8f 92       	push	r8
    1334:	9f 92       	push	r9
    1336:	af 92       	push	r10
    1338:	bf 92       	push	r11
    133a:	cf 92       	push	r12
    133c:	df 92       	push	r13
    133e:	ef 92       	push	r14
    1340:	ff 92       	push	r15
    1342:	0f 93       	push	r16
    1344:	1f 93       	push	r17
    1346:	cf 93       	push	r28
    1348:	df 93       	push	r29
    134a:	1f 92       	push	r1
    134c:	cd b7       	in	r28, 0x3d	; 61
    134e:	de b7       	in	r29, 0x3e	; 62
    1350:	88 2e       	mov	r8, r24
    1352:	96 2e       	mov	r9, r22
    1354:	6a 01       	movw	r12, r20
    1356:	59 01       	movw	r10, r18
    1358:	64 e2       	ldi	r22, 0x24	; 36
    135a:	70 e0       	ldi	r23, 0x00	; 0
    135c:	89 2d       	mov	r24, r9
    135e:	99 83       	std	Y+1, r25	; 0x01
    1360:	47 dc       	rcall	.-1906   	; 0xbf0 <_ZN10W5100Class6readSnEhj>
    1362:	e8 2e       	mov	r14, r24
    1364:	f1 2c       	mov	r15, r1
    1366:	65 e2       	ldi	r22, 0x25	; 37
    1368:	70 e0       	ldi	r23, 0x00	; 0
    136a:	89 2d       	mov	r24, r9
    136c:	41 dc       	rcall	.-1918   	; 0xbf0 <_ZN10W5100Class6readSnEhj>
    136e:	fe 2c       	mov	r15, r14
    1370:	ee 24       	eor	r14, r14
    1372:	e8 2a       	or	r14, r24
    1374:	37 01       	movw	r6, r14
    1376:	6c 0c       	add	r6, r12
    1378:	7d 1c       	adc	r7, r13
    137a:	a3 01       	movw	r20, r6
    137c:	57 70       	andi	r21, 0x07	; 7
    137e:	e8 2c       	mov	r14, r8
    1380:	99 81       	ldd	r25, Y+1	; 0x01
    1382:	f9 2e       	mov	r15, r25
    1384:	e9 0c       	add	r14, r9
    1386:	f1 1c       	adc	r15, r1
    1388:	e9 0c       	add	r14, r9
    138a:	f1 1c       	adc	r15, r1
    138c:	f7 01       	movw	r30, r14
    138e:	80 81       	ld	r24, Z
    1390:	91 81       	ldd	r25, Z+1	; 0x01
    1392:	84 0f       	add	r24, r20
    1394:	95 1f       	adc	r25, r21
    1396:	9a 01       	movw	r18, r20
    1398:	20 0f       	add	r18, r16
    139a:	31 1f       	adc	r19, r17
    139c:	21 30       	cpi	r18, 0x01	; 1
    139e:	38 40       	sbci	r19, 0x08	; 8
    13a0:	90 f0       	brcs	.+36     	; 0x13c6 <_ZN10W5100Class27send_data_processing_offsetEhjPKhj+0x98>
    13a2:	60 e0       	ldi	r22, 0x00	; 0
    13a4:	78 e0       	ldi	r23, 0x08	; 8
    13a6:	6b 01       	movw	r12, r22
    13a8:	c4 1a       	sub	r12, r20
    13aa:	d5 0a       	sbc	r13, r21
    13ac:	a6 01       	movw	r20, r12
    13ae:	b5 01       	movw	r22, r10
    13b0:	1b df       	rcall	.-458    	; 0x11e8 <_ZN10W5100Class5writeEjPKhj>
    13b2:	a8 01       	movw	r20, r16
    13b4:	4c 19       	sub	r20, r12
    13b6:	5d 09       	sbc	r21, r13
    13b8:	b5 01       	movw	r22, r10
    13ba:	6c 0d       	add	r22, r12
    13bc:	7d 1d       	adc	r23, r13
    13be:	f7 01       	movw	r30, r14
    13c0:	80 81       	ld	r24, Z
    13c2:	91 81       	ldd	r25, Z+1	; 0x01
    13c4:	02 c0       	rjmp	.+4      	; 0x13ca <_ZN10W5100Class27send_data_processing_offsetEhjPKhj+0x9c>
    13c6:	a8 01       	movw	r20, r16
    13c8:	b5 01       	movw	r22, r10
    13ca:	0e df       	rcall	.-484    	; 0x11e8 <_ZN10W5100Class5writeEjPKhj>
    13cc:	06 0d       	add	r16, r6
    13ce:	17 1d       	adc	r17, r7
    13d0:	41 2f       	mov	r20, r17
    13d2:	64 e2       	ldi	r22, 0x24	; 36
    13d4:	70 e0       	ldi	r23, 0x00	; 0
    13d6:	89 2d       	mov	r24, r9
    13d8:	15 dc       	rcall	.-2006   	; 0xc04 <_ZN10W5100Class7writeSnEhjh>
    13da:	40 2f       	mov	r20, r16
    13dc:	65 e2       	ldi	r22, 0x25	; 37
    13de:	70 e0       	ldi	r23, 0x00	; 0
    13e0:	89 2d       	mov	r24, r9
    13e2:	0f 90       	pop	r0
    13e4:	df 91       	pop	r29
    13e6:	cf 91       	pop	r28
    13e8:	1f 91       	pop	r17
    13ea:	0f 91       	pop	r16
    13ec:	ff 90       	pop	r15
    13ee:	ef 90       	pop	r14
    13f0:	df 90       	pop	r13
    13f2:	cf 90       	pop	r12
    13f4:	bf 90       	pop	r11
    13f6:	af 90       	pop	r10
    13f8:	9f 90       	pop	r9
    13fa:	8f 90       	pop	r8
    13fc:	7f 90       	pop	r7
    13fe:	6f 90       	pop	r6
    1400:	01 cc       	rjmp	.-2046   	; 0xc04 <_ZN10W5100Class7writeSnEhjh>

00001402 <_ZN10W5100Class4readEjPhj>:
    1402:	cf 92       	push	r12
    1404:	df 92       	push	r13
    1406:	ef 92       	push	r14
    1408:	ff 92       	push	r15
    140a:	0f 93       	push	r16
    140c:	1f 93       	push	r17
    140e:	cf 93       	push	r28
    1410:	df 93       	push	r29
    1412:	ec 01       	movw	r28, r24
    1414:	7a 01       	movw	r14, r20
    1416:	8b 01       	movw	r16, r22
    1418:	6c 01       	movw	r12, r24
    141a:	c4 0e       	add	r12, r20
    141c:	d5 1e       	adc	r13, r21
    141e:	cc 15       	cp	r28, r12
    1420:	dd 05       	cpc	r29, r13
    1422:	79 f0       	breq	.+30     	; 0x1442 <_ZN10W5100Class4readEjPhj+0x40>
    1424:	29 de       	rcall	.-942    	; 0x1078 <_ZN10W5100Class5setSSEv>
    1426:	8f e0       	ldi	r24, 0x0F	; 15
    1428:	20 de       	rcall	.-960    	; 0x106a <_ZN8SPIClass8transferEh>
    142a:	8d 2f       	mov	r24, r29
    142c:	1e de       	rcall	.-964    	; 0x106a <_ZN8SPIClass8transferEh>
    142e:	8c 2f       	mov	r24, r28
    1430:	1c de       	rcall	.-968    	; 0x106a <_ZN8SPIClass8transferEh>
    1432:	21 96       	adiw	r28, 0x01	; 1
    1434:	80 e0       	ldi	r24, 0x00	; 0
    1436:	19 de       	rcall	.-974    	; 0x106a <_ZN8SPIClass8transferEh>
    1438:	f8 01       	movw	r30, r16
    143a:	81 93       	st	Z+, r24
    143c:	8f 01       	movw	r16, r30
    143e:	34 de       	rcall	.-920    	; 0x10a8 <_ZN10W5100Class7resetSSEv>
    1440:	ee cf       	rjmp	.-36     	; 0x141e <_ZN10W5100Class4readEjPhj+0x1c>
    1442:	c7 01       	movw	r24, r14
    1444:	df 91       	pop	r29
    1446:	cf 91       	pop	r28
    1448:	1f 91       	pop	r17
    144a:	0f 91       	pop	r16
    144c:	ff 90       	pop	r15
    144e:	ef 90       	pop	r14
    1450:	df 90       	pop	r13
    1452:	cf 90       	pop	r12
    1454:	08 95       	ret

00001456 <_ZN10W5100Class9read_dataEhjPVhj>:
    1456:	af 92       	push	r10
    1458:	bf 92       	push	r11
    145a:	cf 92       	push	r12
    145c:	df 92       	push	r13
    145e:	ef 92       	push	r14
    1460:	ff 92       	push	r15
    1462:	0f 93       	push	r16
    1464:	1f 93       	push	r17
    1466:	cf 93       	push	r28
    1468:	df 93       	push	r29
    146a:	00 d0       	rcall	.+0      	; 0x146c <_ZN10W5100Class9read_dataEhjPVhj+0x16>
    146c:	cd b7       	in	r28, 0x3d	; 61
    146e:	de b7       	in	r29, 0x3e	; 62
    1470:	5a 83       	std	Y+2, r21	; 0x02
    1472:	49 83       	std	Y+1, r20	; 0x01
    1474:	59 01       	movw	r10, r18
    1476:	29 81       	ldd	r18, Y+1	; 0x01
    1478:	3a 81       	ldd	r19, Y+2	; 0x02
    147a:	37 70       	andi	r19, 0x07	; 7
    147c:	6c 01       	movw	r12, r24
    147e:	c6 0e       	add	r12, r22
    1480:	d1 1c       	adc	r13, r1
    1482:	c6 0e       	add	r12, r22
    1484:	d1 1c       	adc	r13, r1
    1486:	f6 01       	movw	r30, r12
    1488:	80 85       	ldd	r24, Z+8	; 0x08
    148a:	91 85       	ldd	r25, Z+9	; 0x09
    148c:	82 0f       	add	r24, r18
    148e:	93 1f       	adc	r25, r19
    1490:	a8 01       	movw	r20, r16
    1492:	42 0f       	add	r20, r18
    1494:	53 1f       	adc	r21, r19
    1496:	41 30       	cpi	r20, 0x01	; 1
    1498:	58 40       	sbci	r21, 0x08	; 8
    149a:	90 f0       	brcs	.+36     	; 0x14c0 <_ZN10W5100Class9read_dataEhjPVhj+0x6a>
    149c:	e0 e0       	ldi	r30, 0x00	; 0
    149e:	f8 e0       	ldi	r31, 0x08	; 8
    14a0:	7f 01       	movw	r14, r30
    14a2:	e2 1a       	sub	r14, r18
    14a4:	f3 0a       	sbc	r15, r19
    14a6:	a7 01       	movw	r20, r14
    14a8:	b5 01       	movw	r22, r10
    14aa:	ab df       	rcall	.-170    	; 0x1402 <_ZN10W5100Class4readEjPhj>
    14ac:	a8 01       	movw	r20, r16
    14ae:	4e 19       	sub	r20, r14
    14b0:	5f 09       	sbc	r21, r15
    14b2:	b5 01       	movw	r22, r10
    14b4:	6e 0d       	add	r22, r14
    14b6:	7f 1d       	adc	r23, r15
    14b8:	f6 01       	movw	r30, r12
    14ba:	80 85       	ldd	r24, Z+8	; 0x08
    14bc:	91 85       	ldd	r25, Z+9	; 0x09
    14be:	02 c0       	rjmp	.+4      	; 0x14c4 <_ZN10W5100Class9read_dataEhjPVhj+0x6e>
    14c0:	a8 01       	movw	r20, r16
    14c2:	b5 01       	movw	r22, r10
    14c4:	0f 90       	pop	r0
    14c6:	0f 90       	pop	r0
    14c8:	df 91       	pop	r29
    14ca:	cf 91       	pop	r28
    14cc:	1f 91       	pop	r17
    14ce:	0f 91       	pop	r16
    14d0:	ff 90       	pop	r15
    14d2:	ef 90       	pop	r14
    14d4:	df 90       	pop	r13
    14d6:	cf 90       	pop	r12
    14d8:	bf 90       	pop	r11
    14da:	af 90       	pop	r10
    14dc:	92 cf       	rjmp	.-220    	; 0x1402 <_ZN10W5100Class4readEjPhj>

000014de <_ZN10W5100Class20recv_data_processingEhPhjh>:
    14de:	8f 92       	push	r8
    14e0:	9f 92       	push	r9
    14e2:	af 92       	push	r10
    14e4:	bf 92       	push	r11
    14e6:	cf 92       	push	r12
    14e8:	df 92       	push	r13
    14ea:	ef 92       	push	r14
    14ec:	ff 92       	push	r15
    14ee:	0f 93       	push	r16
    14f0:	1f 93       	push	r17
    14f2:	cf 93       	push	r28
    14f4:	df 93       	push	r29
    14f6:	6c 01       	movw	r12, r24
    14f8:	96 2e       	mov	r9, r22
    14fa:	5a 01       	movw	r10, r20
    14fc:	79 01       	movw	r14, r18
    14fe:	80 2e       	mov	r8, r16
    1500:	68 e2       	ldi	r22, 0x28	; 40
    1502:	70 e0       	ldi	r23, 0x00	; 0
    1504:	89 2d       	mov	r24, r9
    1506:	74 db       	rcall	.-2328   	; 0xbf0 <_ZN10W5100Class6readSnEhj>
    1508:	c8 2f       	mov	r28, r24
    150a:	d0 e0       	ldi	r29, 0x00	; 0
    150c:	69 e2       	ldi	r22, 0x29	; 41
    150e:	70 e0       	ldi	r23, 0x00	; 0
    1510:	89 2d       	mov	r24, r9
    1512:	6e db       	rcall	.-2340   	; 0xbf0 <_ZN10W5100Class6readSnEhj>
    1514:	dc 2f       	mov	r29, r28
    1516:	cc 27       	eor	r28, r28
    1518:	c8 2b       	or	r28, r24
    151a:	87 01       	movw	r16, r14
    151c:	95 01       	movw	r18, r10
    151e:	ae 01       	movw	r20, r28
    1520:	69 2d       	mov	r22, r9
    1522:	c6 01       	movw	r24, r12
    1524:	98 df       	rcall	.-208    	; 0x1456 <_ZN10W5100Class9read_dataEhjPVhj>
    1526:	81 10       	cpse	r8, r1
    1528:	18 c0       	rjmp	.+48     	; 0x155a <_ZN10W5100Class20recv_data_processingEhPhjh+0x7c>
    152a:	ce 0d       	add	r28, r14
    152c:	df 1d       	adc	r29, r15
    152e:	4d 2f       	mov	r20, r29
    1530:	68 e2       	ldi	r22, 0x28	; 40
    1532:	70 e0       	ldi	r23, 0x00	; 0
    1534:	89 2d       	mov	r24, r9
    1536:	66 db       	rcall	.-2356   	; 0xc04 <_ZN10W5100Class7writeSnEhjh>
    1538:	4c 2f       	mov	r20, r28
    153a:	69 e2       	ldi	r22, 0x29	; 41
    153c:	70 e0       	ldi	r23, 0x00	; 0
    153e:	89 2d       	mov	r24, r9
    1540:	df 91       	pop	r29
    1542:	cf 91       	pop	r28
    1544:	1f 91       	pop	r17
    1546:	0f 91       	pop	r16
    1548:	ff 90       	pop	r15
    154a:	ef 90       	pop	r14
    154c:	df 90       	pop	r13
    154e:	cf 90       	pop	r12
    1550:	bf 90       	pop	r11
    1552:	af 90       	pop	r10
    1554:	9f 90       	pop	r9
    1556:	8f 90       	pop	r8
    1558:	55 cb       	rjmp	.-2390   	; 0xc04 <_ZN10W5100Class7writeSnEhjh>
    155a:	df 91       	pop	r29
    155c:	cf 91       	pop	r28
    155e:	1f 91       	pop	r17
    1560:	0f 91       	pop	r16
    1562:	ff 90       	pop	r15
    1564:	ef 90       	pop	r14
    1566:	df 90       	pop	r13
    1568:	cf 90       	pop	r12
    156a:	bf 90       	pop	r11
    156c:	af 90       	pop	r10
    156e:	9f 90       	pop	r9
    1570:	8f 90       	pop	r8
    1572:	08 95       	ret

00001574 <_ZN10W5100Class9execCmdSnEh7SockCMD>:
    1574:	cf 93       	push	r28
    1576:	c6 2f       	mov	r28, r22
    1578:	61 e0       	ldi	r22, 0x01	; 1
    157a:	70 e0       	ldi	r23, 0x00	; 0
    157c:	8c 2f       	mov	r24, r28
    157e:	42 db       	rcall	.-2428   	; 0xc04 <_ZN10W5100Class7writeSnEhjh>
    1580:	61 e0       	ldi	r22, 0x01	; 1
    1582:	70 e0       	ldi	r23, 0x00	; 0
    1584:	8c 2f       	mov	r24, r28
    1586:	34 db       	rcall	.-2456   	; 0xbf0 <_ZN10W5100Class6readSnEhj>
    1588:	81 11       	cpse	r24, r1
    158a:	fa cf       	rjmp	.-12     	; 0x1580 <_ZN10W5100Class9execCmdSnEh7SockCMD+0xc>
    158c:	cf 91       	pop	r28
    158e:	08 95       	ret

00001590 <_GLOBAL__sub_I__ZN9DhcpClass13beginWithDHCPEPhmm>:
    1590:	0f 93       	push	r16
    1592:	00 e0       	ldi	r16, 0x00	; 0
    1594:	20 e0       	ldi	r18, 0x00	; 0
    1596:	40 e0       	ldi	r20, 0x00	; 0
    1598:	60 e0       	ldi	r22, 0x00	; 0
    159a:	88 e5       	ldi	r24, 0x58	; 88
    159c:	92 e0       	ldi	r25, 0x02	; 2
    159e:	a3 d7       	rcall	.+3910   	; 0x24e6 <_ZN9IPAddressC1Ehhhh>
    15a0:	0f 91       	pop	r16
    15a2:	08 95       	ret

000015a4 <_ZN9DNSClient5beginERK9IPAddress>:
    15a4:	fb 01       	movw	r30, r22
    15a6:	42 81       	ldd	r20, Z+2	; 0x02
    15a8:	53 81       	ldd	r21, Z+3	; 0x03
    15aa:	64 81       	ldd	r22, Z+4	; 0x04
    15ac:	75 81       	ldd	r23, Z+5	; 0x05
    15ae:	fc 01       	movw	r30, r24
    15b0:	42 83       	std	Z+2, r20	; 0x02
    15b2:	53 83       	std	Z+3, r21	; 0x03
    15b4:	64 83       	std	Z+4, r22	; 0x04
    15b6:	75 83       	std	Z+5, r23	; 0x05
    15b8:	17 82       	std	Z+7, r1	; 0x07
    15ba:	16 82       	std	Z+6, r1	; 0x06
    15bc:	08 95       	ret

000015be <_ZN9DNSClient9inet_atonEPKcR9IPAddress>:
    15be:	cf 93       	push	r28
    15c0:	df 93       	push	r29
    15c2:	fb 01       	movw	r30, r22
    15c4:	20 e0       	ldi	r18, 0x00	; 0
    15c6:	80 e0       	ldi	r24, 0x00	; 0
    15c8:	90 e0       	ldi	r25, 0x00	; 0
    15ca:	aa e0       	ldi	r26, 0x0A	; 10
    15cc:	31 91       	ld	r19, Z+
    15ce:	33 23       	and	r19, r19
    15d0:	01 f1       	breq	.+64     	; 0x1612 <_ZN9DNSClient9inet_atonEPKcR9IPAddress+0x54>
    15d2:	60 ed       	ldi	r22, 0xD0	; 208
    15d4:	63 0f       	add	r22, r19
    15d6:	6a 30       	cpi	r22, 0x0A	; 10
    15d8:	80 f4       	brcc	.+32     	; 0x15fa <_ZN9DNSClient9inet_atonEPKcR9IPAddress+0x3c>
    15da:	a8 9f       	mul	r26, r24
    15dc:	b0 01       	movw	r22, r0
    15de:	a9 9f       	mul	r26, r25
    15e0:	70 0d       	add	r23, r0
    15e2:	11 24       	eor	r1, r1
    15e4:	cb 01       	movw	r24, r22
    15e6:	c0 97       	sbiw	r24, 0x30	; 48
    15e8:	83 0f       	add	r24, r19
    15ea:	91 1d       	adc	r25, r1
    15ec:	37 fd       	sbrc	r19, 7
    15ee:	9a 95       	dec	r25
    15f0:	8f 3f       	cpi	r24, 0xFF	; 255
    15f2:	91 05       	cpc	r25, r1
    15f4:	59 f3       	breq	.-42     	; 0x15cc <_ZN9DNSClient9inet_atonEPKcR9IPAddress+0xe>
    15f6:	50 f3       	brcs	.-44     	; 0x15cc <_ZN9DNSClient9inet_atonEPKcR9IPAddress+0xe>
    15f8:	13 c0       	rjmp	.+38     	; 0x1620 <_ZN9DNSClient9inet_atonEPKcR9IPAddress+0x62>
    15fa:	3e 32       	cpi	r19, 0x2E	; 46
    15fc:	89 f4       	brne	.+34     	; 0x1620 <_ZN9DNSClient9inet_atonEPKcR9IPAddress+0x62>
    15fe:	23 30       	cpi	r18, 0x03	; 3
    1600:	79 f0       	breq	.+30     	; 0x1620 <_ZN9DNSClient9inet_atonEPKcR9IPAddress+0x62>
    1602:	ea 01       	movw	r28, r20
    1604:	c2 0f       	add	r28, r18
    1606:	d1 1d       	adc	r29, r1
    1608:	8a 83       	std	Y+2, r24	; 0x02
    160a:	2f 5f       	subi	r18, 0xFF	; 255
    160c:	80 e0       	ldi	r24, 0x00	; 0
    160e:	90 e0       	ldi	r25, 0x00	; 0
    1610:	dd cf       	rjmp	.-70     	; 0x15cc <_ZN9DNSClient9inet_atonEPKcR9IPAddress+0xe>
    1612:	23 30       	cpi	r18, 0x03	; 3
    1614:	29 f4       	brne	.+10     	; 0x1620 <_ZN9DNSClient9inet_atonEPKcR9IPAddress+0x62>
    1616:	fa 01       	movw	r30, r20
    1618:	85 83       	std	Z+5, r24	; 0x05
    161a:	81 e0       	ldi	r24, 0x01	; 1
    161c:	90 e0       	ldi	r25, 0x00	; 0
    161e:	02 c0       	rjmp	.+4      	; 0x1624 <_ZN9DNSClient9inet_atonEPKcR9IPAddress+0x66>
    1620:	80 e0       	ldi	r24, 0x00	; 0
    1622:	90 e0       	ldi	r25, 0x00	; 0
    1624:	df 91       	pop	r29
    1626:	cf 91       	pop	r28
    1628:	08 95       	ret

0000162a <_GLOBAL__sub_I__ZN9DNSClient5beginERK9IPAddress>:
    162a:	0f 93       	push	r16
    162c:	00 e0       	ldi	r16, 0x00	; 0
    162e:	20 e0       	ldi	r18, 0x00	; 0
    1630:	40 e0       	ldi	r20, 0x00	; 0
    1632:	60 e0       	ldi	r22, 0x00	; 0
    1634:	8e e5       	ldi	r24, 0x5E	; 94
    1636:	92 e0       	ldi	r25, 0x02	; 2
    1638:	56 d7       	rcall	.+3756   	; 0x24e6 <_ZN9IPAddressC1Ehhhh>
    163a:	0f 91       	pop	r16
    163c:	08 95       	ret

0000163e <_ZN9DNSClient12BuildRequestEPKc>:
    163e:	8f 92       	push	r8
    1640:	9f 92       	push	r9
    1642:	af 92       	push	r10
    1644:	bf 92       	push	r11
    1646:	cf 92       	push	r12
    1648:	df 92       	push	r13
    164a:	ef 92       	push	r14
    164c:	ff 92       	push	r15
    164e:	0f 93       	push	r16
    1650:	1f 93       	push	r17
    1652:	cf 93       	push	r28
    1654:	df 93       	push	r29
    1656:	00 d0       	rcall	.+0      	; 0x1658 <_ZN9DNSClient12BuildRequestEPKc+0x1a>
    1658:	00 d0       	rcall	.+0      	; 0x165a <_ZN9DNSClient12BuildRequestEPKc+0x1c>
    165a:	1f 92       	push	r1
    165c:	cd b7       	in	r28, 0x3d	; 61
    165e:	de b7       	in	r29, 0x3e	; 62
    1660:	8c 01       	movw	r16, r24
    1662:	6b 01       	movw	r12, r22
    1664:	0e 94 ee 14 	call	0x29dc	; 0x29dc <millis>
    1668:	f8 01       	movw	r30, r16
    166a:	77 83       	std	Z+7, r23	; 0x07
    166c:	66 83       	std	Z+6, r22	; 0x06
    166e:	76 27       	eor	r23, r22
    1670:	67 27       	eor	r22, r23
    1672:	76 27       	eor	r23, r22
    1674:	7a 83       	std	Y+2, r23	; 0x02
    1676:	69 83       	std	Y+1, r22	; 0x01
    1678:	08 5f       	subi	r16, 0xF8	; 248
    167a:	1f 4f       	sbci	r17, 0xFF	; 255
    167c:	42 e0       	ldi	r20, 0x02	; 2
    167e:	50 e0       	ldi	r21, 0x00	; 0
    1680:	be 01       	movw	r22, r28
    1682:	6f 5f       	subi	r22, 0xFF	; 255
    1684:	7f 4f       	sbci	r23, 0xFF	; 255
    1686:	c8 01       	movw	r24, r16
    1688:	34 d3       	rcall	.+1640   	; 0x1cf2 <_ZN11EthernetUDP5writeEPKhj>
    168a:	81 e0       	ldi	r24, 0x01	; 1
    168c:	90 e0       	ldi	r25, 0x00	; 0
    168e:	9c 83       	std	Y+4, r25	; 0x04
    1690:	8b 83       	std	Y+3, r24	; 0x03
    1692:	42 e0       	ldi	r20, 0x02	; 2
    1694:	50 e0       	ldi	r21, 0x00	; 0
    1696:	be 01       	movw	r22, r28
    1698:	6d 5f       	subi	r22, 0xFD	; 253
    169a:	7f 4f       	sbci	r23, 0xFF	; 255
    169c:	c8 01       	movw	r24, r16
    169e:	29 d3       	rcall	.+1618   	; 0x1cf2 <_ZN11EthernetUDP5writeEPKhj>
    16a0:	80 e0       	ldi	r24, 0x00	; 0
    16a2:	91 e0       	ldi	r25, 0x01	; 1
    16a4:	9c 83       	std	Y+4, r25	; 0x04
    16a6:	8b 83       	std	Y+3, r24	; 0x03
    16a8:	42 e0       	ldi	r20, 0x02	; 2
    16aa:	50 e0       	ldi	r21, 0x00	; 0
    16ac:	be 01       	movw	r22, r28
    16ae:	6d 5f       	subi	r22, 0xFD	; 253
    16b0:	7f 4f       	sbci	r23, 0xFF	; 255
    16b2:	c8 01       	movw	r24, r16
    16b4:	1e d3       	rcall	.+1596   	; 0x1cf2 <_ZN11EthernetUDP5writeEPKhj>
    16b6:	1c 82       	std	Y+4, r1	; 0x04
    16b8:	1b 82       	std	Y+3, r1	; 0x03
    16ba:	42 e0       	ldi	r20, 0x02	; 2
    16bc:	50 e0       	ldi	r21, 0x00	; 0
    16be:	be 01       	movw	r22, r28
    16c0:	6d 5f       	subi	r22, 0xFD	; 253
    16c2:	7f 4f       	sbci	r23, 0xFF	; 255
    16c4:	c8 01       	movw	r24, r16
    16c6:	15 d3       	rcall	.+1578   	; 0x1cf2 <_ZN11EthernetUDP5writeEPKhj>
    16c8:	42 e0       	ldi	r20, 0x02	; 2
    16ca:	50 e0       	ldi	r21, 0x00	; 0
    16cc:	be 01       	movw	r22, r28
    16ce:	6d 5f       	subi	r22, 0xFD	; 253
    16d0:	7f 4f       	sbci	r23, 0xFF	; 255
    16d2:	c8 01       	movw	r24, r16
    16d4:	0e d3       	rcall	.+1564   	; 0x1cf2 <_ZN11EthernetUDP5writeEPKhj>
    16d6:	42 e0       	ldi	r20, 0x02	; 2
    16d8:	50 e0       	ldi	r21, 0x00	; 0
    16da:	be 01       	movw	r22, r28
    16dc:	6d 5f       	subi	r22, 0xFD	; 253
    16de:	7f 4f       	sbci	r23, 0xFF	; 255
    16e0:	c8 01       	movw	r24, r16
    16e2:	07 d3       	rcall	.+1550   	; 0x1cf2 <_ZN11EthernetUDP5writeEPKhj>
    16e4:	56 01       	movw	r10, r12
    16e6:	f5 01       	movw	r30, r10
    16e8:	80 81       	ld	r24, Z
    16ea:	88 23       	and	r24, r24
    16ec:	19 f1       	breq	.+70     	; 0x1734 <_ZN9DNSClient12BuildRequestEPKc+0xf6>
    16ee:	c6 01       	movw	r24, r12
    16f0:	7c 01       	movw	r14, r24
    16f2:	fc 01       	movw	r30, r24
    16f4:	20 81       	ld	r18, Z
    16f6:	01 96       	adiw	r24, 0x01	; 1
    16f8:	21 11       	cpse	r18, r1
    16fa:	14 c0       	rjmp	.+40     	; 0x1724 <_ZN9DNSClient12BuildRequestEPKc+0xe6>
    16fc:	57 01       	movw	r10, r14
    16fe:	47 01       	movw	r8, r14
    1700:	8c 18       	sub	r8, r12
    1702:	9d 08       	sbc	r9, r13
    1704:	18 14       	cp	r1, r8
    1706:	19 04       	cpc	r1, r9
    1708:	84 f4       	brge	.+32     	; 0x172a <_ZN9DNSClient12BuildRequestEPKc+0xec>
    170a:	8d 82       	std	Y+5, r8	; 0x05
    170c:	41 e0       	ldi	r20, 0x01	; 1
    170e:	50 e0       	ldi	r21, 0x00	; 0
    1710:	be 01       	movw	r22, r28
    1712:	6b 5f       	subi	r22, 0xFB	; 251
    1714:	7f 4f       	sbci	r23, 0xFF	; 255
    1716:	c8 01       	movw	r24, r16
    1718:	ec d2       	rcall	.+1496   	; 0x1cf2 <_ZN11EthernetUDP5writeEPKhj>
    171a:	a4 01       	movw	r20, r8
    171c:	b6 01       	movw	r22, r12
    171e:	c8 01       	movw	r24, r16
    1720:	e8 d2       	rcall	.+1488   	; 0x1cf2 <_ZN11EthernetUDP5writeEPKhj>
    1722:	03 c0       	rjmp	.+6      	; 0x172a <_ZN9DNSClient12BuildRequestEPKc+0xec>
    1724:	2e 32       	cpi	r18, 0x2E	; 46
    1726:	21 f7       	brne	.-56     	; 0x16f0 <_ZN9DNSClient12BuildRequestEPKc+0xb2>
    1728:	e9 cf       	rjmp	.-46     	; 0x16fc <_ZN9DNSClient12BuildRequestEPKc+0xbe>
    172a:	67 01       	movw	r12, r14
    172c:	ff ef       	ldi	r31, 0xFF	; 255
    172e:	cf 1a       	sub	r12, r31
    1730:	df 0a       	sbc	r13, r31
    1732:	d9 cf       	rjmp	.-78     	; 0x16e6 <_ZN9DNSClient12BuildRequestEPKc+0xa8>
    1734:	1d 82       	std	Y+5, r1	; 0x05
    1736:	41 e0       	ldi	r20, 0x01	; 1
    1738:	50 e0       	ldi	r21, 0x00	; 0
    173a:	be 01       	movw	r22, r28
    173c:	6b 5f       	subi	r22, 0xFB	; 251
    173e:	7f 4f       	sbci	r23, 0xFF	; 255
    1740:	c8 01       	movw	r24, r16
    1742:	d7 d2       	rcall	.+1454   	; 0x1cf2 <_ZN11EthernetUDP5writeEPKhj>
    1744:	e1 2c       	mov	r14, r1
    1746:	ff 24       	eor	r15, r15
    1748:	f3 94       	inc	r15
    174a:	fc 82       	std	Y+4, r15	; 0x04
    174c:	eb 82       	std	Y+3, r14	; 0x03
    174e:	42 e0       	ldi	r20, 0x02	; 2
    1750:	50 e0       	ldi	r21, 0x00	; 0
    1752:	be 01       	movw	r22, r28
    1754:	6d 5f       	subi	r22, 0xFD	; 253
    1756:	7f 4f       	sbci	r23, 0xFF	; 255
    1758:	c8 01       	movw	r24, r16
    175a:	cb d2       	rcall	.+1430   	; 0x1cf2 <_ZN11EthernetUDP5writeEPKhj>
    175c:	fc 82       	std	Y+4, r15	; 0x04
    175e:	eb 82       	std	Y+3, r14	; 0x03
    1760:	42 e0       	ldi	r20, 0x02	; 2
    1762:	50 e0       	ldi	r21, 0x00	; 0
    1764:	be 01       	movw	r22, r28
    1766:	6d 5f       	subi	r22, 0xFD	; 253
    1768:	7f 4f       	sbci	r23, 0xFF	; 255
    176a:	c8 01       	movw	r24, r16
    176c:	c2 d2       	rcall	.+1412   	; 0x1cf2 <_ZN11EthernetUDP5writeEPKhj>
    176e:	81 e0       	ldi	r24, 0x01	; 1
    1770:	90 e0       	ldi	r25, 0x00	; 0
    1772:	0f 90       	pop	r0
    1774:	0f 90       	pop	r0
    1776:	0f 90       	pop	r0
    1778:	0f 90       	pop	r0
    177a:	0f 90       	pop	r0
    177c:	df 91       	pop	r29
    177e:	cf 91       	pop	r28
    1780:	1f 91       	pop	r17
    1782:	0f 91       	pop	r16
    1784:	ff 90       	pop	r15
    1786:	ef 90       	pop	r14
    1788:	df 90       	pop	r13
    178a:	cf 90       	pop	r12
    178c:	bf 90       	pop	r11
    178e:	af 90       	pop	r10
    1790:	9f 90       	pop	r9
    1792:	8f 90       	pop	r8
    1794:	08 95       	ret

00001796 <_ZN9DNSClient15ProcessResponseEjR9IPAddress>:
    1796:	4f 92       	push	r4
    1798:	5f 92       	push	r5
    179a:	6f 92       	push	r6
    179c:	7f 92       	push	r7
    179e:	8f 92       	push	r8
    17a0:	9f 92       	push	r9
    17a2:	af 92       	push	r10
    17a4:	bf 92       	push	r11
    17a6:	cf 92       	push	r12
    17a8:	df 92       	push	r13
    17aa:	ef 92       	push	r14
    17ac:	ff 92       	push	r15
    17ae:	0f 93       	push	r16
    17b0:	1f 93       	push	r17
    17b2:	cf 93       	push	r28
    17b4:	df 93       	push	r29
    17b6:	cd b7       	in	r28, 0x3d	; 61
    17b8:	de b7       	in	r29, 0x3e	; 62
    17ba:	65 97       	sbiw	r28, 0x15	; 21
    17bc:	0f b6       	in	r0, 0x3f	; 63
    17be:	f8 94       	cli
    17c0:	de bf       	out	0x3e, r29	; 62
    17c2:	0f be       	out	0x3f, r0	; 63
    17c4:	cd bf       	out	0x3d, r28	; 61
    17c6:	7c 01       	movw	r14, r24
    17c8:	5b 01       	movw	r10, r22
    17ca:	6a 01       	movw	r12, r20
    17cc:	0e 94 ee 14 	call	0x29dc	; 0x29dc <millis>
    17d0:	2b 01       	movw	r4, r22
    17d2:	3c 01       	movw	r6, r24
    17d4:	87 01       	movw	r16, r14
    17d6:	08 5f       	subi	r16, 0xF8	; 248
    17d8:	1f 4f       	sbci	r17, 0xFF	; 255
    17da:	45 01       	movw	r8, r10
    17dc:	a1 2c       	mov	r10, r1
    17de:	b1 2c       	mov	r11, r1
    17e0:	c8 01       	movw	r24, r16
    17e2:	26 d3       	rcall	.+1612   	; 0x1e30 <_ZN11EthernetUDP11parsePacketEv>
    17e4:	18 16       	cp	r1, r24
    17e6:	19 06       	cpc	r1, r25
    17e8:	a4 f0       	brlt	.+40     	; 0x1812 <_ZN9DNSClient15ProcessResponseEjR9IPAddress+0x7c>
    17ea:	0e 94 ee 14 	call	0x29dc	; 0x29dc <millis>
    17ee:	dc 01       	movw	r26, r24
    17f0:	cb 01       	movw	r24, r22
    17f2:	84 19       	sub	r24, r4
    17f4:	95 09       	sbc	r25, r5
    17f6:	a6 09       	sbc	r26, r6
    17f8:	b7 09       	sbc	r27, r7
    17fa:	88 16       	cp	r8, r24
    17fc:	99 06       	cpc	r9, r25
    17fe:	aa 06       	cpc	r10, r26
    1800:	bb 06       	cpc	r11, r27
    1802:	d0 f0       	brcs	.+52     	; 0x1838 <_ZN9DNSClient15ProcessResponseEjR9IPAddress+0xa2>
    1804:	62 e3       	ldi	r22, 0x32	; 50
    1806:	70 e0       	ldi	r23, 0x00	; 0
    1808:	80 e0       	ldi	r24, 0x00	; 0
    180a:	90 e0       	ldi	r25, 0x00	; 0
    180c:	0e 94 1f 15 	call	0x2a3e	; 0x2a3e <delay>
    1810:	e7 cf       	rjmp	.-50     	; 0x17e0 <_ZN9DNSClient15ProcessResponseEjR9IPAddress+0x4a>
    1812:	f7 01       	movw	r30, r14
    1814:	42 81       	ldd	r20, Z+2	; 0x02
    1816:	53 81       	ldd	r21, Z+3	; 0x03
    1818:	64 81       	ldd	r22, Z+4	; 0x04
    181a:	75 81       	ldd	r23, Z+5	; 0x05
    181c:	80 8d       	ldd	r24, Z+24	; 0x18
    181e:	91 8d       	ldd	r25, Z+25	; 0x19
    1820:	a2 8d       	ldd	r26, Z+26	; 0x1a
    1822:	b3 8d       	ldd	r27, Z+27	; 0x1b
    1824:	48 17       	cp	r20, r24
    1826:	59 07       	cpc	r21, r25
    1828:	6a 07       	cpc	r22, r26
    182a:	7b 07       	cpc	r23, r27
    182c:	41 f4       	brne	.+16     	; 0x183e <_ZN9DNSClient15ProcessResponseEjR9IPAddress+0xa8>
    182e:	84 8d       	ldd	r24, Z+28	; 0x1c
    1830:	95 8d       	ldd	r25, Z+29	; 0x1d
    1832:	c5 97       	sbiw	r24, 0x35	; 53
    1834:	21 f4       	brne	.+8      	; 0x183e <_ZN9DNSClient15ProcessResponseEjR9IPAddress+0xa8>
    1836:	06 c0       	rjmp	.+12     	; 0x1844 <_ZN9DNSClient15ProcessResponseEjR9IPAddress+0xae>
    1838:	2f ef       	ldi	r18, 0xFF	; 255
    183a:	3f ef       	ldi	r19, 0xFF	; 255
    183c:	e0 c0       	rjmp	.+448    	; 0x19fe <_ZN9DNSClient15ProcessResponseEjR9IPAddress+0x268>
    183e:	2e ef       	ldi	r18, 0xFE	; 254
    1840:	3f ef       	ldi	r19, 0xFF	; 255
    1842:	dd c0       	rjmp	.+442    	; 0x19fe <_ZN9DNSClient15ProcessResponseEjR9IPAddress+0x268>
    1844:	c8 01       	movw	r24, r16
    1846:	1b d2       	rcall	.+1078   	; 0x1c7e <_ZN11EthernetUDP9availableEv>
    1848:	0c 97       	sbiw	r24, 0x0c	; 12
    184a:	d4 f0       	brlt	.+52     	; 0x1880 <_ZN9DNSClient15ProcessResponseEjR9IPAddress+0xea>
    184c:	4c e0       	ldi	r20, 0x0C	; 12
    184e:	50 e0       	ldi	r21, 0x00	; 0
    1850:	be 01       	movw	r22, r28
    1852:	6f 5f       	subi	r22, 0xFF	; 255
    1854:	7f 4f       	sbci	r23, 0xFF	; 255
    1856:	c8 01       	movw	r24, r16
    1858:	87 d2       	rcall	.+1294   	; 0x1d68 <_ZN11EthernetUDP4readEPhj>
    185a:	6c 81       	ldd	r22, Y+4	; 0x04
    185c:	8b 81       	ldd	r24, Y+3	; 0x03
    185e:	46 d7       	rcall	.+3724   	; 0x26ec <_Z8makeWordhh>
    1860:	9a 8b       	std	Y+18, r25	; 0x12
    1862:	89 8b       	std	Y+17, r24	; 0x11
    1864:	f7 01       	movw	r30, r14
    1866:	e6 80       	ldd	r14, Z+6	; 0x06
    1868:	f7 80       	ldd	r15, Z+7	; 0x07
    186a:	6a 81       	ldd	r22, Y+2	; 0x02
    186c:	89 81       	ldd	r24, Y+1	; 0x01
    186e:	3e d7       	rcall	.+3708   	; 0x26ec <_Z8makeWordhh>
    1870:	e8 16       	cp	r14, r24
    1872:	f9 06       	cpc	r15, r25
    1874:	41 f4       	brne	.+16     	; 0x1886 <_ZN9DNSClient15ProcessResponseEjR9IPAddress+0xf0>
    1876:	89 89       	ldd	r24, Y+17	; 0x11
    1878:	9a 89       	ldd	r25, Y+18	; 0x12
    187a:	97 ff       	sbrs	r25, 7
    187c:	04 c0       	rjmp	.+8      	; 0x1886 <_ZN9DNSClient15ProcessResponseEjR9IPAddress+0xf0>
    187e:	08 c0       	rjmp	.+16     	; 0x1890 <_ZN9DNSClient15ProcessResponseEjR9IPAddress+0xfa>
    1880:	2d ef       	ldi	r18, 0xFD	; 253
    1882:	3f ef       	ldi	r19, 0xFF	; 255
    1884:	bc c0       	rjmp	.+376    	; 0x19fe <_ZN9DNSClient15ProcessResponseEjR9IPAddress+0x268>
    1886:	c8 01       	movw	r24, r16
    1888:	14 d2       	rcall	.+1064   	; 0x1cb2 <_ZN11EthernetUDP5flushEv>
    188a:	2c ef       	ldi	r18, 0xFC	; 252
    188c:	3f ef       	ldi	r19, 0xFF	; 255
    188e:	b7 c0       	rjmp	.+366    	; 0x19fe <_ZN9DNSClient15ProcessResponseEjR9IPAddress+0x268>
    1890:	8f 70       	andi	r24, 0x0F	; 15
    1892:	92 70       	andi	r25, 0x02	; 2
    1894:	89 2b       	or	r24, r25
    1896:	29 f0       	breq	.+10     	; 0x18a2 <_ZN9DNSClient15ProcessResponseEjR9IPAddress+0x10c>
    1898:	c8 01       	movw	r24, r16
    189a:	0b d2       	rcall	.+1046   	; 0x1cb2 <_ZN11EthernetUDP5flushEv>
    189c:	2b ef       	ldi	r18, 0xFB	; 251
    189e:	3f ef       	ldi	r19, 0xFF	; 255
    18a0:	ae c0       	rjmp	.+348    	; 0x19fe <_ZN9DNSClient15ProcessResponseEjR9IPAddress+0x268>
    18a2:	68 85       	ldd	r22, Y+8	; 0x08
    18a4:	8f 81       	ldd	r24, Y+7	; 0x07
    18a6:	22 d7       	rcall	.+3652   	; 0x26ec <_Z8makeWordhh>
    18a8:	5c 01       	movw	r10, r24
    18aa:	89 2b       	or	r24, r25
    18ac:	29 f4       	brne	.+10     	; 0x18b8 <_ZN9DNSClient15ProcessResponseEjR9IPAddress+0x122>
    18ae:	c8 01       	movw	r24, r16
    18b0:	00 d2       	rcall	.+1024   	; 0x1cb2 <_ZN11EthernetUDP5flushEv>
    18b2:	2a ef       	ldi	r18, 0xFA	; 250
    18b4:	3f ef       	ldi	r19, 0xFF	; 255
    18b6:	a3 c0       	rjmp	.+326    	; 0x19fe <_ZN9DNSClient15ProcessResponseEjR9IPAddress+0x268>
    18b8:	e1 2c       	mov	r14, r1
    18ba:	f1 2c       	mov	r15, r1
    18bc:	6e 81       	ldd	r22, Y+6	; 0x06
    18be:	8d 81       	ldd	r24, Y+5	; 0x05
    18c0:	15 d7       	rcall	.+3626   	; 0x26ec <_Z8makeWordhh>
    18c2:	e8 16       	cp	r14, r24
    18c4:	f9 06       	cpc	r15, r25
    18c6:	10 f5       	brcc	.+68     	; 0x190c <_ZN9DNSClient15ProcessResponseEjR9IPAddress+0x176>
    18c8:	41 e0       	ldi	r20, 0x01	; 1
    18ca:	50 e0       	ldi	r21, 0x00	; 0
    18cc:	be 01       	movw	r22, r28
    18ce:	63 5f       	subi	r22, 0xF3	; 243
    18d0:	7f 4f       	sbci	r23, 0xFF	; 255
    18d2:	c8 01       	movw	r24, r16
    18d4:	49 d2       	rcall	.+1170   	; 0x1d68 <_ZN11EthernetUDP4readEPhj>
    18d6:	8d 85       	ldd	r24, Y+13	; 0x0d
    18d8:	81 11       	cpse	r24, r1
    18da:	0f c0       	rjmp	.+30     	; 0x18fa <_ZN9DNSClient15ProcessResponseEjR9IPAddress+0x164>
    18dc:	8d 85       	ldd	r24, Y+13	; 0x0d
    18de:	81 11       	cpse	r24, r1
    18e0:	f3 cf       	rjmp	.-26     	; 0x18c8 <_ZN9DNSClient15ProcessResponseEjR9IPAddress+0x132>
    18e2:	c8 01       	movw	r24, r16
    18e4:	19 d2       	rcall	.+1074   	; 0x1d18 <_ZN11EthernetUDP4readEv>
    18e6:	c8 01       	movw	r24, r16
    18e8:	17 d2       	rcall	.+1070   	; 0x1d18 <_ZN11EthernetUDP4readEv>
    18ea:	c8 01       	movw	r24, r16
    18ec:	15 d2       	rcall	.+1066   	; 0x1d18 <_ZN11EthernetUDP4readEv>
    18ee:	c8 01       	movw	r24, r16
    18f0:	13 d2       	rcall	.+1062   	; 0x1d18 <_ZN11EthernetUDP4readEv>
    18f2:	ff ef       	ldi	r31, 0xFF	; 255
    18f4:	ef 1a       	sub	r14, r31
    18f6:	ff 0a       	sbc	r15, r31
    18f8:	e1 cf       	rjmp	.-62     	; 0x18bc <_ZN9DNSClient15ProcessResponseEjR9IPAddress+0x126>
    18fa:	8d 85       	ldd	r24, Y+13	; 0x0d
    18fc:	9f ef       	ldi	r25, 0xFF	; 255
    18fe:	98 0f       	add	r25, r24
    1900:	9d 87       	std	Y+13, r25	; 0x0d
    1902:	88 23       	and	r24, r24
    1904:	59 f3       	breq	.-42     	; 0x18dc <_ZN9DNSClient15ProcessResponseEjR9IPAddress+0x146>
    1906:	c8 01       	movw	r24, r16
    1908:	07 d2       	rcall	.+1038   	; 0x1d18 <_ZN11EthernetUDP4readEv>
    190a:	f7 cf       	rjmp	.-18     	; 0x18fa <_ZN9DNSClient15ProcessResponseEjR9IPAddress+0x164>
    190c:	e1 2c       	mov	r14, r1
    190e:	f1 2c       	mov	r15, r1
    1910:	41 e0       	ldi	r20, 0x01	; 1
    1912:	50 e0       	ldi	r21, 0x00	; 0
    1914:	be 01       	movw	r22, r28
    1916:	6d 5e       	subi	r22, 0xED	; 237
    1918:	7f 4f       	sbci	r23, 0xFF	; 255
    191a:	c8 01       	movw	r24, r16
    191c:	25 d2       	rcall	.+1098   	; 0x1d68 <_ZN11EthernetUDP4readEPhj>
    191e:	8b 89       	ldd	r24, Y+19	; 0x13
    1920:	98 2f       	mov	r25, r24
    1922:	90 7c       	andi	r25, 0xC0	; 192
    1924:	59 f4       	brne	.+22     	; 0x193c <_ZN9DNSClient15ProcessResponseEjR9IPAddress+0x1a6>
    1926:	88 23       	and	r24, r24
    1928:	61 f0       	breq	.+24     	; 0x1942 <_ZN9DNSClient15ProcessResponseEjR9IPAddress+0x1ac>
    192a:	8b 89       	ldd	r24, Y+19	; 0x13
    192c:	9f ef       	ldi	r25, 0xFF	; 255
    192e:	98 0f       	add	r25, r24
    1930:	9b 8b       	std	Y+19, r25	; 0x13
    1932:	88 23       	and	r24, r24
    1934:	31 f0       	breq	.+12     	; 0x1942 <_ZN9DNSClient15ProcessResponseEjR9IPAddress+0x1ac>
    1936:	c8 01       	movw	r24, r16
    1938:	ef d1       	rcall	.+990    	; 0x1d18 <_ZN11EthernetUDP4readEv>
    193a:	f7 cf       	rjmp	.-18     	; 0x192a <_ZN9DNSClient15ProcessResponseEjR9IPAddress+0x194>
    193c:	c8 01       	movw	r24, r16
    193e:	ec d1       	rcall	.+984    	; 0x1d18 <_ZN11EthernetUDP4readEv>
    1940:	1b 8a       	std	Y+19, r1	; 0x13
    1942:	8b 89       	ldd	r24, Y+19	; 0x13
    1944:	81 11       	cpse	r24, r1
    1946:	e4 cf       	rjmp	.-56     	; 0x1910 <_ZN9DNSClient15ProcessResponseEjR9IPAddress+0x17a>
    1948:	42 e0       	ldi	r20, 0x02	; 2
    194a:	50 e0       	ldi	r21, 0x00	; 0
    194c:	be 01       	movw	r22, r28
    194e:	61 5f       	subi	r22, 0xF1	; 241
    1950:	7f 4f       	sbci	r23, 0xFF	; 255
    1952:	c8 01       	movw	r24, r16
    1954:	09 d2       	rcall	.+1042   	; 0x1d68 <_ZN11EthernetUDP4readEPhj>
    1956:	42 e0       	ldi	r20, 0x02	; 2
    1958:	50 e0       	ldi	r21, 0x00	; 0
    195a:	be 01       	movw	r22, r28
    195c:	63 5f       	subi	r22, 0xF3	; 243
    195e:	7f 4f       	sbci	r23, 0xFF	; 255
    1960:	c8 01       	movw	r24, r16
    1962:	02 d2       	rcall	.+1028   	; 0x1d68 <_ZN11EthernetUDP4readEPhj>
    1964:	c8 01       	movw	r24, r16
    1966:	d8 d1       	rcall	.+944    	; 0x1d18 <_ZN11EthernetUDP4readEv>
    1968:	c8 01       	movw	r24, r16
    196a:	d6 d1       	rcall	.+940    	; 0x1d18 <_ZN11EthernetUDP4readEv>
    196c:	c8 01       	movw	r24, r16
    196e:	d4 d1       	rcall	.+936    	; 0x1d18 <_ZN11EthernetUDP4readEv>
    1970:	c8 01       	movw	r24, r16
    1972:	d2 d1       	rcall	.+932    	; 0x1d18 <_ZN11EthernetUDP4readEv>
    1974:	42 e0       	ldi	r20, 0x02	; 2
    1976:	50 e0       	ldi	r21, 0x00	; 0
    1978:	be 01       	movw	r22, r28
    197a:	6f 5e       	subi	r22, 0xEF	; 239
    197c:	7f 4f       	sbci	r23, 0xFF	; 255
    197e:	c8 01       	movw	r24, r16
    1980:	f3 d1       	rcall	.+998    	; 0x1d68 <_ZN11EthernetUDP4readEPhj>
    1982:	8f 85       	ldd	r24, Y+15	; 0x0f
    1984:	98 89       	ldd	r25, Y+16	; 0x10
    1986:	81 15       	cp	r24, r1
    1988:	91 40       	sbci	r25, 0x01	; 1
    198a:	f1 f4       	brne	.+60     	; 0x19c8 <_ZN9DNSClient15ProcessResponseEjR9IPAddress+0x232>
    198c:	2d 85       	ldd	r18, Y+13	; 0x0d
    198e:	3e 85       	ldd	r19, Y+14	; 0x0e
    1990:	32 27       	eor	r19, r18
    1992:	23 27       	eor	r18, r19
    1994:	32 27       	eor	r19, r18
    1996:	21 30       	cpi	r18, 0x01	; 1
    1998:	31 05       	cpc	r19, r1
    199a:	b1 f4       	brne	.+44     	; 0x19c8 <_ZN9DNSClient15ProcessResponseEjR9IPAddress+0x232>
    199c:	89 89       	ldd	r24, Y+17	; 0x11
    199e:	9a 89       	ldd	r25, Y+18	; 0x12
    19a0:	81 15       	cp	r24, r1
    19a2:	94 40       	sbci	r25, 0x04	; 4
    19a4:	29 f0       	breq	.+10     	; 0x19b0 <_ZN9DNSClient15ProcessResponseEjR9IPAddress+0x21a>
    19a6:	c8 01       	movw	r24, r16
    19a8:	84 d1       	rcall	.+776    	; 0x1cb2 <_ZN11EthernetUDP5flushEv>
    19aa:	27 ef       	ldi	r18, 0xF7	; 247
    19ac:	3f ef       	ldi	r19, 0xFF	; 255
    19ae:	27 c0       	rjmp	.+78     	; 0x19fe <_ZN9DNSClient15ProcessResponseEjR9IPAddress+0x268>
    19b0:	b6 01       	movw	r22, r12
    19b2:	6e 5f       	subi	r22, 0xFE	; 254
    19b4:	7f 4f       	sbci	r23, 0xFF	; 255
    19b6:	44 e0       	ldi	r20, 0x04	; 4
    19b8:	50 e0       	ldi	r21, 0x00	; 0
    19ba:	c8 01       	movw	r24, r16
    19bc:	2c 8b       	std	Y+20, r18	; 0x14
    19be:	3d 8b       	std	Y+21, r19	; 0x15
    19c0:	d3 d1       	rcall	.+934    	; 0x1d68 <_ZN11EthernetUDP4readEPhj>
    19c2:	2c 89       	ldd	r18, Y+20	; 0x14
    19c4:	3d 89       	ldd	r19, Y+21	; 0x15
    19c6:	1b c0       	rjmp	.+54     	; 0x19fe <_ZN9DNSClient15ProcessResponseEjR9IPAddress+0x268>
    19c8:	81 2c       	mov	r8, r1
    19ca:	91 2c       	mov	r9, r1
    19cc:	89 89       	ldd	r24, Y+17	; 0x11
    19ce:	9a 89       	ldd	r25, Y+18	; 0x12
    19d0:	98 27       	eor	r25, r24
    19d2:	89 27       	eor	r24, r25
    19d4:	98 27       	eor	r25, r24
    19d6:	88 16       	cp	r8, r24
    19d8:	99 06       	cpc	r9, r25
    19da:	30 f4       	brcc	.+12     	; 0x19e8 <_ZN9DNSClient15ProcessResponseEjR9IPAddress+0x252>
    19dc:	c8 01       	movw	r24, r16
    19de:	9c d1       	rcall	.+824    	; 0x1d18 <_ZN11EthernetUDP4readEv>
    19e0:	8f ef       	ldi	r24, 0xFF	; 255
    19e2:	88 1a       	sub	r8, r24
    19e4:	98 0a       	sbc	r9, r24
    19e6:	f2 cf       	rjmp	.-28     	; 0x19cc <_ZN9DNSClient15ProcessResponseEjR9IPAddress+0x236>
    19e8:	ef ef       	ldi	r30, 0xFF	; 255
    19ea:	ee 1a       	sub	r14, r30
    19ec:	fe 0a       	sbc	r15, r30
    19ee:	ea 14       	cp	r14, r10
    19f0:	fb 04       	cpc	r15, r11
    19f2:	09 f0       	breq	.+2      	; 0x19f6 <_ZN9DNSClient15ProcessResponseEjR9IPAddress+0x260>
    19f4:	8d cf       	rjmp	.-230    	; 0x1910 <_ZN9DNSClient15ProcessResponseEjR9IPAddress+0x17a>
    19f6:	c8 01       	movw	r24, r16
    19f8:	5c d1       	rcall	.+696    	; 0x1cb2 <_ZN11EthernetUDP5flushEv>
    19fa:	26 ef       	ldi	r18, 0xF6	; 246
    19fc:	3f ef       	ldi	r19, 0xFF	; 255
    19fe:	c9 01       	movw	r24, r18
    1a00:	65 96       	adiw	r28, 0x15	; 21
    1a02:	0f b6       	in	r0, 0x3f	; 63
    1a04:	f8 94       	cli
    1a06:	de bf       	out	0x3e, r29	; 62
    1a08:	0f be       	out	0x3f, r0	; 63
    1a0a:	cd bf       	out	0x3d, r28	; 61
    1a0c:	df 91       	pop	r29
    1a0e:	cf 91       	pop	r28
    1a10:	1f 91       	pop	r17
    1a12:	0f 91       	pop	r16
    1a14:	ff 90       	pop	r15
    1a16:	ef 90       	pop	r14
    1a18:	df 90       	pop	r13
    1a1a:	cf 90       	pop	r12
    1a1c:	bf 90       	pop	r11
    1a1e:	af 90       	pop	r10
    1a20:	9f 90       	pop	r9
    1a22:	8f 90       	pop	r8
    1a24:	7f 90       	pop	r7
    1a26:	6f 90       	pop	r6
    1a28:	5f 90       	pop	r5
    1a2a:	4f 90       	pop	r4
    1a2c:	08 95       	ret

00001a2e <_ZN9DNSClient13getHostByNameEPKcR9IPAddress>:
    1a2e:	8f 92       	push	r8
    1a30:	9f 92       	push	r9
    1a32:	af 92       	push	r10
    1a34:	bf 92       	push	r11
    1a36:	cf 92       	push	r12
    1a38:	df 92       	push	r13
    1a3a:	ef 92       	push	r14
    1a3c:	ff 92       	push	r15
    1a3e:	0f 93       	push	r16
    1a40:	1f 93       	push	r17
    1a42:	cf 93       	push	r28
    1a44:	df 93       	push	r29
    1a46:	00 d0       	rcall	.+0      	; 0x1a48 <_ZN9DNSClient13getHostByNameEPKcR9IPAddress+0x1a>
    1a48:	00 d0       	rcall	.+0      	; 0x1a4a <_ZN9DNSClient13getHostByNameEPKcR9IPAddress+0x1c>
    1a4a:	00 d0       	rcall	.+0      	; 0x1a4c <_ZN9DNSClient13getHostByNameEPKcR9IPAddress+0x1e>
    1a4c:	cd b7       	in	r28, 0x3d	; 61
    1a4e:	de b7       	in	r29, 0x3e	; 62
    1a50:	7c 01       	movw	r14, r24
    1a52:	4b 01       	movw	r8, r22
    1a54:	5a 01       	movw	r10, r20
    1a56:	b3 dd       	rcall	.-1178   	; 0x15be <_ZN9DNSClient9inet_atonEPKcR9IPAddress>
    1a58:	8c 01       	movw	r16, r24
    1a5a:	89 2b       	or	r24, r25
    1a5c:	09 f0       	breq	.+2      	; 0x1a60 <_ZN9DNSClient13getHostByNameEPKcR9IPAddress+0x32>
    1a5e:	54 c0       	rjmp	.+168    	; 0x1b08 <_ZN9DNSClient13getHostByNameEPKcR9IPAddress+0xda>
    1a60:	f7 01       	movw	r30, r14
    1a62:	42 81       	ldd	r20, Z+2	; 0x02
    1a64:	53 81       	ldd	r21, Z+3	; 0x03
    1a66:	64 81       	ldd	r22, Z+4	; 0x04
    1a68:	75 81       	ldd	r23, Z+5	; 0x05
    1a6a:	80 91 60 02 	lds	r24, 0x0260	; 0x800260 <_ZL11INADDR_NONE+0x2>
    1a6e:	90 91 61 02 	lds	r25, 0x0261	; 0x800261 <_ZL11INADDR_NONE+0x3>
    1a72:	a0 91 62 02 	lds	r26, 0x0262	; 0x800262 <_ZL11INADDR_NONE+0x4>
    1a76:	b0 91 63 02 	lds	r27, 0x0263	; 0x800263 <_ZL11INADDR_NONE+0x5>
    1a7a:	48 17       	cp	r20, r24
    1a7c:	59 07       	cpc	r21, r25
    1a7e:	6a 07       	cpc	r22, r26
    1a80:	7b 07       	cpc	r23, r27
    1a82:	09 f4       	brne	.+2      	; 0x1a86 <_ZN9DNSClient13getHostByNameEPKcR9IPAddress+0x58>
    1a84:	44 c0       	rjmp	.+136    	; 0x1b0e <_ZN9DNSClient13getHostByNameEPKcR9IPAddress+0xe0>
    1a86:	aa d7       	rcall	.+3924   	; 0x29dc <millis>
    1a88:	67 01       	movw	r12, r14
    1a8a:	f8 e0       	ldi	r31, 0x08	; 8
    1a8c:	cf 0e       	add	r12, r31
    1a8e:	d1 1c       	adc	r13, r1
    1a90:	6f 70       	andi	r22, 0x0F	; 15
    1a92:	77 27       	eor	r23, r23
    1a94:	7c 5f       	subi	r23, 0xFC	; 252
    1a96:	c6 01       	movw	r24, r12
    1a98:	9e d1       	rcall	.+828    	; 0x1dd6 <_ZN11EthernetUDP5beginEj>
    1a9a:	81 30       	cpi	r24, 0x01	; 1
    1a9c:	09 f0       	breq	.+2      	; 0x1aa0 <_ZN9DNSClient13getHostByNameEPKcR9IPAddress+0x72>
    1a9e:	39 c0       	rjmp	.+114    	; 0x1b12 <_ZN9DNSClient13getHostByNameEPKcR9IPAddress+0xe4>
    1aa0:	87 e1       	ldi	r24, 0x17	; 23
    1aa2:	92 e0       	ldi	r25, 0x02	; 2
    1aa4:	9a 83       	std	Y+2, r25	; 0x02
    1aa6:	89 83       	std	Y+1, r24	; 0x01
    1aa8:	f7 01       	movw	r30, r14
    1aaa:	82 81       	ldd	r24, Z+2	; 0x02
    1aac:	93 81       	ldd	r25, Z+3	; 0x03
    1aae:	a4 81       	ldd	r26, Z+4	; 0x04
    1ab0:	b5 81       	ldd	r27, Z+5	; 0x05
    1ab2:	8b 83       	std	Y+3, r24	; 0x03
    1ab4:	9c 83       	std	Y+4, r25	; 0x04
    1ab6:	ad 83       	std	Y+5, r26	; 0x05
    1ab8:	be 83       	std	Y+6, r27	; 0x06
    1aba:	45 e3       	ldi	r20, 0x35	; 53
    1abc:	50 e0       	ldi	r21, 0x00	; 0
    1abe:	be 01       	movw	r22, r28
    1ac0:	6f 5f       	subi	r22, 0xFF	; 255
    1ac2:	7f 4f       	sbci	r23, 0xFF	; 255
    1ac4:	c6 01       	movw	r24, r12
    1ac6:	0b d1       	rcall	.+534    	; 0x1cde <_ZN11EthernetUDP11beginPacketE9IPAddressj>
    1ac8:	89 2b       	or	r24, r25
    1aca:	19 f4       	brne	.+6      	; 0x1ad2 <_ZN9DNSClient13getHostByNameEPKcR9IPAddress+0xa4>
    1acc:	00 e0       	ldi	r16, 0x00	; 0
    1ace:	10 e0       	ldi	r17, 0x00	; 0
    1ad0:	18 c0       	rjmp	.+48     	; 0x1b02 <_ZN9DNSClient13getHostByNameEPKcR9IPAddress+0xd4>
    1ad2:	b4 01       	movw	r22, r8
    1ad4:	c7 01       	movw	r24, r14
    1ad6:	b3 dd       	rcall	.-1178   	; 0x163e <_ZN9DNSClient12BuildRequestEPKc>
    1ad8:	89 2b       	or	r24, r25
    1ada:	c1 f3       	breq	.-16     	; 0x1acc <_ZN9DNSClient13getHostByNameEPKcR9IPAddress+0x9e>
    1adc:	c6 01       	movw	r24, r12
    1ade:	06 d1       	rcall	.+524    	; 0x1cec <_ZN11EthernetUDP9endPacketEv>
    1ae0:	89 2b       	or	r24, r25
    1ae2:	a1 f3       	breq	.-24     	; 0x1acc <_ZN9DNSClient13getHostByNameEPKcR9IPAddress+0x9e>
    1ae4:	83 e0       	ldi	r24, 0x03	; 3
    1ae6:	88 2e       	mov	r8, r24
    1ae8:	91 2c       	mov	r9, r1
    1aea:	a5 01       	movw	r20, r10
    1aec:	68 e8       	ldi	r22, 0x88	; 136
    1aee:	73 e1       	ldi	r23, 0x13	; 19
    1af0:	c7 01       	movw	r24, r14
    1af2:	51 de       	rcall	.-862    	; 0x1796 <_ZN9DNSClient15ProcessResponseEjR9IPAddress>
    1af4:	8c 01       	movw	r16, r24
    1af6:	f1 e0       	ldi	r31, 0x01	; 1
    1af8:	8f 1a       	sub	r8, r31
    1afa:	91 08       	sbc	r9, r1
    1afc:	11 f0       	breq	.+4      	; 0x1b02 <_ZN9DNSClient13getHostByNameEPKcR9IPAddress+0xd4>
    1afe:	01 96       	adiw	r24, 0x01	; 1
    1b00:	a1 f3       	breq	.-24     	; 0x1aea <_ZN9DNSClient13getHostByNameEPKcR9IPAddress+0xbc>
    1b02:	c6 01       	movw	r24, r12
    1b04:	d7 d0       	rcall	.+430    	; 0x1cb4 <_ZN11EthernetUDP4stopEv>
    1b06:	05 c0       	rjmp	.+10     	; 0x1b12 <_ZN9DNSClient13getHostByNameEPKcR9IPAddress+0xe4>
    1b08:	01 e0       	ldi	r16, 0x01	; 1
    1b0a:	10 e0       	ldi	r17, 0x00	; 0
    1b0c:	02 c0       	rjmp	.+4      	; 0x1b12 <_ZN9DNSClient13getHostByNameEPKcR9IPAddress+0xe4>
    1b0e:	0e ef       	ldi	r16, 0xFE	; 254
    1b10:	1f ef       	ldi	r17, 0xFF	; 255
    1b12:	c8 01       	movw	r24, r16
    1b14:	26 96       	adiw	r28, 0x06	; 6
    1b16:	0f b6       	in	r0, 0x3f	; 63
    1b18:	f8 94       	cli
    1b1a:	de bf       	out	0x3e, r29	; 62
    1b1c:	0f be       	out	0x3f, r0	; 63
    1b1e:	cd bf       	out	0x3d, r28	; 61
    1b20:	df 91       	pop	r29
    1b22:	cf 91       	pop	r28
    1b24:	1f 91       	pop	r17
    1b26:	0f 91       	pop	r16
    1b28:	ff 90       	pop	r15
    1b2a:	ef 90       	pop	r14
    1b2c:	df 90       	pop	r13
    1b2e:	cf 90       	pop	r12
    1b30:	bf 90       	pop	r11
    1b32:	af 90       	pop	r10
    1b34:	9f 90       	pop	r9
    1b36:	8f 90       	pop	r8
    1b38:	08 95       	ret

00001b3a <_ZN10W5100Class8writeGAREPh>:
    1b3a:	44 e0       	ldi	r20, 0x04	; 4
    1b3c:	50 e0       	ldi	r21, 0x00	; 0
    1b3e:	bc 01       	movw	r22, r24
    1b40:	81 e0       	ldi	r24, 0x01	; 1
    1b42:	90 e0       	ldi	r25, 0x00	; 0
    1b44:	51 cb       	rjmp	.-2398   	; 0x11e8 <_ZN10W5100Class5writeEjPKhj>

00001b46 <_ZN10W5100Class9writeSUBREPh>:
    1b46:	44 e0       	ldi	r20, 0x04	; 4
    1b48:	50 e0       	ldi	r21, 0x00	; 0
    1b4a:	bc 01       	movw	r22, r24
    1b4c:	85 e0       	ldi	r24, 0x05	; 5
    1b4e:	90 e0       	ldi	r25, 0x00	; 0
    1b50:	4b cb       	rjmp	.-2410   	; 0x11e8 <_ZN10W5100Class5writeEjPKhj>

00001b52 <_ZN10W5100Class9writeSIPREPh>:
    1b52:	44 e0       	ldi	r20, 0x04	; 4
    1b54:	50 e0       	ldi	r21, 0x00	; 0
    1b56:	bc 01       	movw	r22, r24
    1b58:	8f e0       	ldi	r24, 0x0F	; 15
    1b5a:	90 e0       	ldi	r25, 0x00	; 0
    1b5c:	45 cb       	rjmp	.-2422   	; 0x11e8 <_ZN10W5100Class5writeEjPKhj>

00001b5e <_ZN13EthernetClass5beginEPh9IPAddressS1_S1_S1_>:
    1b5e:	8f 92       	push	r8
    1b60:	9f 92       	push	r9
    1b62:	af 92       	push	r10
    1b64:	bf 92       	push	r11
    1b66:	cf 92       	push	r12
    1b68:	df 92       	push	r13
    1b6a:	ef 92       	push	r14
    1b6c:	ff 92       	push	r15
    1b6e:	0f 93       	push	r16
    1b70:	1f 93       	push	r17
    1b72:	cf 93       	push	r28
    1b74:	df 93       	push	r29
    1b76:	00 d0       	rcall	.+0      	; 0x1b78 <_ZN13EthernetClass5beginEPh9IPAddressS1_S1_S1_+0x1a>
    1b78:	cd b7       	in	r28, 0x3d	; 61
    1b7a:	de b7       	in	r29, 0x3e	; 62
    1b7c:	4c 01       	movw	r8, r24
    1b7e:	5a 01       	movw	r10, r20
    1b80:	69 01       	movw	r12, r18
    1b82:	88 e4       	ldi	r24, 0x48	; 72
    1b84:	92 e0       	ldi	r25, 0x02	; 2
    1b86:	69 83       	std	Y+1, r22	; 0x01
    1b88:	7a 83       	std	Y+2, r23	; 0x02
    1b8a:	bb da       	rcall	.-2698   	; 0x1102 <_ZN10W5100Class4initEv>
    1b8c:	80 e5       	ldi	r24, 0x50	; 80
    1b8e:	90 e0       	ldi	r25, 0x00	; 0
    1b90:	0e 94 c5 05 	call	0xb8a	; 0xb8a <_ZN8SPIClass16beginTransactionE11SPISettings>
    1b94:	46 e0       	ldi	r20, 0x06	; 6
    1b96:	50 e0       	ldi	r21, 0x00	; 0
    1b98:	69 81       	ldd	r22, Y+1	; 0x01
    1b9a:	7a 81       	ldd	r23, Y+2	; 0x02
    1b9c:	89 e0       	ldi	r24, 0x09	; 9
    1b9e:	90 e0       	ldi	r25, 0x00	; 0
    1ba0:	23 db       	rcall	.-2490   	; 0x11e8 <_ZN10W5100Class5writeEjPKhj>
    1ba2:	c5 01       	movw	r24, r10
    1ba4:	02 96       	adiw	r24, 0x02	; 2
    1ba6:	d5 df       	rcall	.-86     	; 0x1b52 <_ZN10W5100Class9writeSIPREPh>
    1ba8:	c8 01       	movw	r24, r16
    1baa:	02 96       	adiw	r24, 0x02	; 2
    1bac:	c6 df       	rcall	.-116    	; 0x1b3a <_ZN10W5100Class8writeGAREPh>
    1bae:	c7 01       	movw	r24, r14
    1bb0:	02 96       	adiw	r24, 0x02	; 2
    1bb2:	c9 df       	rcall	.-110    	; 0x1b46 <_ZN10W5100Class9writeSUBREPh>
    1bb4:	04 d8       	rcall	.-4088   	; 0xbbe <_ZN8SPIClass14endTransactionEv>
    1bb6:	f6 01       	movw	r30, r12
    1bb8:	82 81       	ldd	r24, Z+2	; 0x02
    1bba:	93 81       	ldd	r25, Z+3	; 0x03
    1bbc:	a4 81       	ldd	r26, Z+4	; 0x04
    1bbe:	b5 81       	ldd	r27, Z+5	; 0x05
    1bc0:	f4 01       	movw	r30, r8
    1bc2:	82 83       	std	Z+2, r24	; 0x02
    1bc4:	93 83       	std	Z+3, r25	; 0x03
    1bc6:	a4 83       	std	Z+4, r26	; 0x04
    1bc8:	b5 83       	std	Z+5, r27	; 0x05
    1bca:	0f 90       	pop	r0
    1bcc:	0f 90       	pop	r0
    1bce:	df 91       	pop	r29
    1bd0:	cf 91       	pop	r28
    1bd2:	1f 91       	pop	r17
    1bd4:	0f 91       	pop	r16
    1bd6:	ff 90       	pop	r15
    1bd8:	ef 90       	pop	r14
    1bda:	df 90       	pop	r13
    1bdc:	cf 90       	pop	r12
    1bde:	bf 90       	pop	r11
    1be0:	af 90       	pop	r10
    1be2:	9f 90       	pop	r9
    1be4:	8f 90       	pop	r8
    1be6:	08 95       	ret

00001be8 <_ZN13EthernetClass11dnsServerIPEv>:
    1be8:	27 e1       	ldi	r18, 0x17	; 23
    1bea:	32 e0       	ldi	r19, 0x02	; 2
    1bec:	fc 01       	movw	r30, r24
    1bee:	31 83       	std	Z+1, r19	; 0x01
    1bf0:	20 83       	st	Z, r18
    1bf2:	fb 01       	movw	r30, r22
    1bf4:	42 81       	ldd	r20, Z+2	; 0x02
    1bf6:	53 81       	ldd	r21, Z+3	; 0x03
    1bf8:	64 81       	ldd	r22, Z+4	; 0x04
    1bfa:	75 81       	ldd	r23, Z+5	; 0x05
    1bfc:	fc 01       	movw	r30, r24
    1bfe:	42 83       	std	Z+2, r20	; 0x02
    1c00:	53 83       	std	Z+3, r21	; 0x03
    1c02:	64 83       	std	Z+4, r22	; 0x04
    1c04:	75 83       	std	Z+5, r23	; 0x05
    1c06:	08 95       	ret

00001c08 <_GLOBAL__sub_I__ZN13EthernetClass6_stateE>:
    1c08:	0f 93       	push	r16
    1c0a:	00 e0       	ldi	r16, 0x00	; 0
    1c0c:	20 e0       	ldi	r18, 0x00	; 0
    1c0e:	40 e0       	ldi	r20, 0x00	; 0
    1c10:	60 e0       	ldi	r22, 0x00	; 0
    1c12:	84 e7       	ldi	r24, 0x74	; 116
    1c14:	92 e0       	ldi	r25, 0x02	; 2
    1c16:	67 d4       	rcall	.+2254   	; 0x24e6 <_ZN9IPAddressC1Ehhhh>
    1c18:	84 e6       	ldi	r24, 0x64	; 100
    1c1a:	92 e0       	ldi	r25, 0x02	; 2
    1c1c:	0f 91       	pop	r16
    1c1e:	59 c4       	rjmp	.+2226   	; 0x24d2 <_ZN9IPAddressC1Ev>

00001c20 <_GLOBAL__sub_I__ZN14EthernetClient8_srcportE>:
    1c20:	0f 93       	push	r16
    1c22:	00 e0       	ldi	r16, 0x00	; 0
    1c24:	20 e0       	ldi	r18, 0x00	; 0
    1c26:	40 e0       	ldi	r20, 0x00	; 0
    1c28:	60 e0       	ldi	r22, 0x00	; 0
    1c2a:	8a e7       	ldi	r24, 0x7A	; 122
    1c2c:	92 e0       	ldi	r25, 0x02	; 2
    1c2e:	5b d4       	rcall	.+2230   	; 0x24e6 <_ZN9IPAddressC1Ehhhh>
    1c30:	0f 91       	pop	r16
    1c32:	08 95       	ret

00001c34 <_GLOBAL__sub_I__ZN14EthernetServerC2Ej>:
    1c34:	0f 93       	push	r16
    1c36:	00 e0       	ldi	r16, 0x00	; 0
    1c38:	20 e0       	ldi	r18, 0x00	; 0
    1c3a:	40 e0       	ldi	r20, 0x00	; 0
    1c3c:	60 e0       	ldi	r22, 0x00	; 0
    1c3e:	80 e8       	ldi	r24, 0x80	; 128
    1c40:	92 e0       	ldi	r25, 0x02	; 2
    1c42:	51 d4       	rcall	.+2210   	; 0x24e6 <_ZN9IPAddressC1Ehhhh>
    1c44:	0f 91       	pop	r16
    1c46:	08 95       	ret

00001c48 <_ZN11EthernetUDP4readEPcj>:
    1c48:	dc 01       	movw	r26, r24
    1c4a:	ed 91       	ld	r30, X+
    1c4c:	fc 91       	ld	r31, X
    1c4e:	00 8c       	ldd	r0, Z+24	; 0x18
    1c50:	f1 8d       	ldd	r31, Z+25	; 0x19
    1c52:	e0 2d       	mov	r30, r0
    1c54:	09 94       	ijmp

00001c56 <_ZN11EthernetUDP8remoteIPEv>:
    1c56:	27 e1       	ldi	r18, 0x17	; 23
    1c58:	32 e0       	ldi	r19, 0x02	; 2
    1c5a:	fc 01       	movw	r30, r24
    1c5c:	31 83       	std	Z+1, r19	; 0x01
    1c5e:	20 83       	st	Z, r18
    1c60:	fb 01       	movw	r30, r22
    1c62:	40 89       	ldd	r20, Z+16	; 0x10
    1c64:	51 89       	ldd	r21, Z+17	; 0x11
    1c66:	62 89       	ldd	r22, Z+18	; 0x12
    1c68:	73 89       	ldd	r23, Z+19	; 0x13
    1c6a:	fc 01       	movw	r30, r24
    1c6c:	42 83       	std	Z+2, r20	; 0x02
    1c6e:	53 83       	std	Z+3, r21	; 0x03
    1c70:	64 83       	std	Z+4, r22	; 0x04
    1c72:	75 83       	std	Z+5, r23	; 0x05
    1c74:	08 95       	ret

00001c76 <_ZN11EthernetUDP10remotePortEv>:
    1c76:	fc 01       	movw	r30, r24
    1c78:	84 89       	ldd	r24, Z+20	; 0x14
    1c7a:	95 89       	ldd	r25, Z+21	; 0x15
    1c7c:	08 95       	ret

00001c7e <_ZN11EthernetUDP9availableEv>:
    1c7e:	fc 01       	movw	r30, r24
    1c80:	81 8d       	ldd	r24, Z+25	; 0x19
    1c82:	92 8d       	ldd	r25, Z+26	; 0x1a
    1c84:	08 95       	ret

00001c86 <_ZN11EthernetUDP5writeEh>:
    1c86:	cf 93       	push	r28
    1c88:	df 93       	push	r29
    1c8a:	1f 92       	push	r1
    1c8c:	cd b7       	in	r28, 0x3d	; 61
    1c8e:	de b7       	in	r29, 0x3e	; 62
    1c90:	69 83       	std	Y+1, r22	; 0x01
    1c92:	dc 01       	movw	r26, r24
    1c94:	ed 91       	ld	r30, X+
    1c96:	fc 91       	ld	r31, X
    1c98:	02 80       	ldd	r0, Z+2	; 0x02
    1c9a:	f3 81       	ldd	r31, Z+3	; 0x03
    1c9c:	e0 2d       	mov	r30, r0
    1c9e:	41 e0       	ldi	r20, 0x01	; 1
    1ca0:	50 e0       	ldi	r21, 0x00	; 0
    1ca2:	be 01       	movw	r22, r28
    1ca4:	6f 5f       	subi	r22, 0xFF	; 255
    1ca6:	7f 4f       	sbci	r23, 0xFF	; 255
    1ca8:	09 95       	icall
    1caa:	0f 90       	pop	r0
    1cac:	df 91       	pop	r29
    1cae:	cf 91       	pop	r28
    1cb0:	08 95       	ret

00001cb2 <_ZN11EthernetUDP5flushEv>:
    1cb2:	08 95       	ret

00001cb4 <_ZN11EthernetUDP4stopEv>:
    1cb4:	cf 93       	push	r28
    1cb6:	df 93       	push	r29
    1cb8:	ec 01       	movw	r28, r24
    1cba:	88 8d       	ldd	r24, Y+24	; 0x18
    1cbc:	84 30       	cpi	r24, 0x04	; 4
    1cbe:	61 f0       	breq	.+24     	; 0x1cd8 <_ZN11EthernetUDP4stopEv+0x24>
    1cc0:	0e 94 51 06 	call	0xca2	; 0xca2 <_Z5closeh>
    1cc4:	e8 8d       	ldd	r30, Y+24	; 0x18
    1cc6:	f0 e0       	ldi	r31, 0x00	; 0
    1cc8:	ee 0f       	add	r30, r30
    1cca:	ff 1f       	adc	r31, r31
    1ccc:	e4 59       	subi	r30, 0x94	; 148
    1cce:	fd 4f       	sbci	r31, 0xFD	; 253
    1cd0:	11 82       	std	Z+1, r1	; 0x01
    1cd2:	10 82       	st	Z, r1
    1cd4:	84 e0       	ldi	r24, 0x04	; 4
    1cd6:	88 8f       	std	Y+24, r24	; 0x18
    1cd8:	df 91       	pop	r29
    1cda:	cf 91       	pop	r28
    1cdc:	08 95       	ret

00001cde <_ZN11EthernetUDP11beginPacketE9IPAddressj>:
    1cde:	fc 01       	movw	r30, r24
    1ce0:	17 8a       	std	Z+23, r1	; 0x17
    1ce2:	16 8a       	std	Z+22, r1	; 0x16
    1ce4:	6e 5f       	subi	r22, 0xFE	; 254
    1ce6:	7f 4f       	sbci	r23, 0xFF	; 255
    1ce8:	80 8d       	ldd	r24, Z+24	; 0x18
    1cea:	38 c9       	rjmp	.-3472   	; 0xf5c <_Z8startUDPhPhj>

00001cec <_ZN11EthernetUDP9endPacketEv>:
    1cec:	fc 01       	movw	r30, r24
    1cee:	80 8d       	ldd	r24, Z+24	; 0x18
    1cf0:	76 c9       	rjmp	.-3348   	; 0xfde <_Z7sendUDPh>

00001cf2 <_ZN11EthernetUDP5writeEPKhj>:
    1cf2:	cf 93       	push	r28
    1cf4:	df 93       	push	r29
    1cf6:	ec 01       	movw	r28, r24
    1cf8:	9a 01       	movw	r18, r20
    1cfa:	8e 89       	ldd	r24, Y+22	; 0x16
    1cfc:	9f 89       	ldd	r25, Y+23	; 0x17
    1cfe:	ab 01       	movw	r20, r22
    1d00:	bc 01       	movw	r22, r24
    1d02:	88 8d       	ldd	r24, Y+24	; 0x18
    1d04:	ea d8       	rcall	.-3628   	; 0xeda <_Z10bufferDatahjPKhj>
    1d06:	2e 89       	ldd	r18, Y+22	; 0x16
    1d08:	3f 89       	ldd	r19, Y+23	; 0x17
    1d0a:	28 0f       	add	r18, r24
    1d0c:	39 1f       	adc	r19, r25
    1d0e:	3f 8b       	std	Y+23, r19	; 0x17
    1d10:	2e 8b       	std	Y+22, r18	; 0x16
    1d12:	df 91       	pop	r29
    1d14:	cf 91       	pop	r28
    1d16:	08 95       	ret

00001d18 <_ZN11EthernetUDP4readEv>:
    1d18:	0f 93       	push	r16
    1d1a:	1f 93       	push	r17
    1d1c:	cf 93       	push	r28
    1d1e:	df 93       	push	r29
    1d20:	1f 92       	push	r1
    1d22:	cd b7       	in	r28, 0x3d	; 61
    1d24:	de b7       	in	r29, 0x3e	; 62
    1d26:	fc 01       	movw	r30, r24
    1d28:	21 8d       	ldd	r18, Z+25	; 0x19
    1d2a:	32 8d       	ldd	r19, Z+26	; 0x1a
    1d2c:	23 2b       	or	r18, r19
    1d2e:	59 f0       	breq	.+22     	; 0x1d46 <_ZN11EthernetUDP4readEv+0x2e>
    1d30:	8c 01       	movw	r16, r24
    1d32:	41 e0       	ldi	r20, 0x01	; 1
    1d34:	50 e0       	ldi	r21, 0x00	; 0
    1d36:	be 01       	movw	r22, r28
    1d38:	6f 5f       	subi	r22, 0xFF	; 255
    1d3a:	7f 4f       	sbci	r23, 0xFF	; 255
    1d3c:	80 8d       	ldd	r24, Z+24	; 0x18
    1d3e:	22 d8       	rcall	.-4028   	; 0xd84 <_Z4recvhPhi>
    1d40:	18 16       	cp	r1, r24
    1d42:	19 06       	cpc	r1, r25
    1d44:	1c f0       	brlt	.+6      	; 0x1d4c <_ZN11EthernetUDP4readEv+0x34>
    1d46:	8f ef       	ldi	r24, 0xFF	; 255
    1d48:	9f ef       	ldi	r25, 0xFF	; 255
    1d4a:	08 c0       	rjmp	.+16     	; 0x1d5c <_ZN11EthernetUDP4readEv+0x44>
    1d4c:	f8 01       	movw	r30, r16
    1d4e:	81 8d       	ldd	r24, Z+25	; 0x19
    1d50:	92 8d       	ldd	r25, Z+26	; 0x1a
    1d52:	01 97       	sbiw	r24, 0x01	; 1
    1d54:	92 8f       	std	Z+26, r25	; 0x1a
    1d56:	81 8f       	std	Z+25, r24	; 0x19
    1d58:	89 81       	ldd	r24, Y+1	; 0x01
    1d5a:	90 e0       	ldi	r25, 0x00	; 0
    1d5c:	0f 90       	pop	r0
    1d5e:	df 91       	pop	r29
    1d60:	cf 91       	pop	r28
    1d62:	1f 91       	pop	r17
    1d64:	0f 91       	pop	r16
    1d66:	08 95       	ret

00001d68 <_ZN11EthernetUDP4readEPhj>:
    1d68:	cf 93       	push	r28
    1d6a:	df 93       	push	r29
    1d6c:	fc 01       	movw	r30, r24
    1d6e:	21 8d       	ldd	r18, Z+25	; 0x19
    1d70:	32 8d       	ldd	r19, Z+26	; 0x1a
    1d72:	21 15       	cp	r18, r1
    1d74:	31 05       	cpc	r19, r1
    1d76:	19 f4       	brne	.+6      	; 0x1d7e <_ZN11EthernetUDP4readEPhj+0x16>
    1d78:	8f ef       	ldi	r24, 0xFF	; 255
    1d7a:	9f ef       	ldi	r25, 0xFF	; 255
    1d7c:	11 c0       	rjmp	.+34     	; 0x1da0 <_ZN11EthernetUDP4readEPhj+0x38>
    1d7e:	ec 01       	movw	r28, r24
    1d80:	42 17       	cp	r20, r18
    1d82:	53 07       	cpc	r21, r19
    1d84:	08 f0       	brcs	.+2      	; 0x1d88 <_ZN11EthernetUDP4readEPhj+0x20>
    1d86:	a9 01       	movw	r20, r18
    1d88:	88 8d       	ldd	r24, Y+24	; 0x18
    1d8a:	0e 94 c2 06 	call	0xd84	; 0xd84 <_Z4recvhPhi>
    1d8e:	18 16       	cp	r1, r24
    1d90:	19 06       	cpc	r1, r25
    1d92:	94 f7       	brge	.-28     	; 0x1d78 <_ZN11EthernetUDP4readEPhj+0x10>
    1d94:	29 8d       	ldd	r18, Y+25	; 0x19
    1d96:	3a 8d       	ldd	r19, Y+26	; 0x1a
    1d98:	28 1b       	sub	r18, r24
    1d9a:	39 0b       	sbc	r19, r25
    1d9c:	3a 8f       	std	Y+26, r19	; 0x1a
    1d9e:	29 8f       	std	Y+25, r18	; 0x19
    1da0:	df 91       	pop	r29
    1da2:	cf 91       	pop	r28
    1da4:	08 95       	ret

00001da6 <_ZN11EthernetUDP4peekEv>:
    1da6:	cf 93       	push	r28
    1da8:	df 93       	push	r29
    1daa:	1f 92       	push	r1
    1dac:	cd b7       	in	r28, 0x3d	; 61
    1dae:	de b7       	in	r29, 0x3e	; 62
    1db0:	fc 01       	movw	r30, r24
    1db2:	21 8d       	ldd	r18, Z+25	; 0x19
    1db4:	32 8d       	ldd	r19, Z+26	; 0x1a
    1db6:	23 2b       	or	r18, r19
    1db8:	41 f0       	breq	.+16     	; 0x1dca <_ZN11EthernetUDP4peekEv+0x24>
    1dba:	be 01       	movw	r22, r28
    1dbc:	6f 5f       	subi	r22, 0xFF	; 255
    1dbe:	7f 4f       	sbci	r23, 0xFF	; 255
    1dc0:	80 8d       	ldd	r24, Z+24	; 0x18
    1dc2:	60 d8       	rcall	.-3904   	; 0xe84 <_Z4peekhPh>
    1dc4:	89 81       	ldd	r24, Y+1	; 0x01
    1dc6:	90 e0       	ldi	r25, 0x00	; 0
    1dc8:	02 c0       	rjmp	.+4      	; 0x1dce <_ZN11EthernetUDP4peekEv+0x28>
    1dca:	8f ef       	ldi	r24, 0xFF	; 255
    1dcc:	9f ef       	ldi	r25, 0xFF	; 255
    1dce:	0f 90       	pop	r0
    1dd0:	df 91       	pop	r29
    1dd2:	cf 91       	pop	r28
    1dd4:	08 95       	ret

00001dd6 <_ZN11EthernetUDP5beginEj>:
    1dd6:	ef 92       	push	r14
    1dd8:	ff 92       	push	r15
    1dda:	1f 93       	push	r17
    1ddc:	cf 93       	push	r28
    1dde:	df 93       	push	r29
    1de0:	fc 01       	movw	r30, r24
    1de2:	20 8d       	ldd	r18, Z+24	; 0x18
    1de4:	24 30       	cpi	r18, 0x04	; 4
    1de6:	11 f0       	breq	.+4      	; 0x1dec <_ZN11EthernetUDP5beginEj+0x16>
    1de8:	80 e0       	ldi	r24, 0x00	; 0
    1dea:	1c c0       	rjmp	.+56     	; 0x1e24 <_ZN11EthernetUDP5beginEj+0x4e>
    1dec:	7b 01       	movw	r14, r22
    1dee:	ec 01       	movw	r28, r24
    1df0:	10 e0       	ldi	r17, 0x00	; 0
    1df2:	81 2f       	mov	r24, r17
    1df4:	0e 94 2d 06 	call	0xc5a	; 0xc5a <_Z12socketStatush>
    1df8:	81 11       	cpse	r24, r1
    1dfa:	02 c0       	rjmp	.+4      	; 0x1e00 <_ZN11EthernetUDP5beginEj+0x2a>
    1dfc:	18 8f       	std	Y+24, r17	; 0x18
    1dfe:	05 c0       	rjmp	.+10     	; 0x1e0a <_ZN11EthernetUDP5beginEj+0x34>
    1e00:	88 31       	cpi	r24, 0x18	; 24
    1e02:	e1 f3       	breq	.-8      	; 0x1dfc <_ZN11EthernetUDP5beginEj+0x26>
    1e04:	1f 5f       	subi	r17, 0xFF	; 255
    1e06:	14 30       	cpi	r17, 0x04	; 4
    1e08:	a1 f7       	brne	.-24     	; 0x1df2 <_ZN11EthernetUDP5beginEj+0x1c>
    1e0a:	88 8d       	ldd	r24, Y+24	; 0x18
    1e0c:	84 30       	cpi	r24, 0x04	; 4
    1e0e:	61 f3       	breq	.-40     	; 0x1de8 <_ZN11EthernetUDP5beginEj+0x12>
    1e10:	fd 86       	std	Y+13, r15	; 0x0d
    1e12:	ec 86       	std	Y+12, r14	; 0x0c
    1e14:	1a 8e       	std	Y+26, r1	; 0x1a
    1e16:	19 8e       	std	Y+25, r1	; 0x19
    1e18:	20 e0       	ldi	r18, 0x00	; 0
    1e1a:	a7 01       	movw	r20, r14
    1e1c:	62 e0       	ldi	r22, 0x02	; 2
    1e1e:	0e 94 76 06 	call	0xcec	; 0xcec <_Z6sockethhjh>
    1e22:	81 e0       	ldi	r24, 0x01	; 1
    1e24:	df 91       	pop	r29
    1e26:	cf 91       	pop	r28
    1e28:	1f 91       	pop	r17
    1e2a:	ff 90       	pop	r15
    1e2c:	ef 90       	pop	r14
    1e2e:	08 95       	ret

00001e30 <_ZN11EthernetUDP11parsePacketEv>:
    1e30:	0f 93       	push	r16
    1e32:	1f 93       	push	r17
    1e34:	cf 93       	push	r28
    1e36:	df 93       	push	r29
    1e38:	cd b7       	in	r28, 0x3d	; 61
    1e3a:	de b7       	in	r29, 0x3e	; 62
    1e3c:	28 97       	sbiw	r28, 0x08	; 8
    1e3e:	0f b6       	in	r0, 0x3f	; 63
    1e40:	f8 94       	cli
    1e42:	de bf       	out	0x3e, r29	; 62
    1e44:	0f be       	out	0x3f, r0	; 63
    1e46:	cd bf       	out	0x3d, r28	; 61
    1e48:	8c 01       	movw	r16, r24
    1e4a:	f8 01       	movw	r30, r16
    1e4c:	81 8d       	ldd	r24, Z+25	; 0x19
    1e4e:	92 8d       	ldd	r25, Z+26	; 0x1a
    1e50:	89 2b       	or	r24, r25
    1e52:	49 f0       	breq	.+18     	; 0x1e66 <_ZN11EthernetUDP11parsePacketEv+0x36>
    1e54:	d8 01       	movw	r26, r16
    1e56:	ed 91       	ld	r30, X+
    1e58:	fc 91       	ld	r31, X
    1e5a:	06 80       	ldd	r0, Z+6	; 0x06
    1e5c:	f7 81       	ldd	r31, Z+7	; 0x07
    1e5e:	e0 2d       	mov	r30, r0
    1e60:	c8 01       	movw	r24, r16
    1e62:	09 95       	icall
    1e64:	f2 cf       	rjmp	.-28     	; 0x1e4a <_ZN11EthernetUDP11parsePacketEv+0x1a>
    1e66:	80 8d       	ldd	r24, Z+24	; 0x18
    1e68:	0e 94 1b 07 	call	0xe36	; 0xe36 <_Z13recvAvailableh>
    1e6c:	18 16       	cp	r1, r24
    1e6e:	19 06       	cpc	r1, r25
    1e70:	4c f5       	brge	.+82     	; 0x1ec4 <_ZN11EthernetUDP11parsePacketEv+0x94>
    1e72:	48 e0       	ldi	r20, 0x08	; 8
    1e74:	50 e0       	ldi	r21, 0x00	; 0
    1e76:	be 01       	movw	r22, r28
    1e78:	6f 5f       	subi	r22, 0xFF	; 255
    1e7a:	7f 4f       	sbci	r23, 0xFF	; 255
    1e7c:	d8 01       	movw	r26, r16
    1e7e:	58 96       	adiw	r26, 0x18	; 24
    1e80:	8c 91       	ld	r24, X
    1e82:	0e 94 c2 06 	call	0xd84	; 0xd84 <_Z4recvhPhi>
    1e86:	9c 01       	movw	r18, r24
    1e88:	18 16       	cp	r1, r24
    1e8a:	19 06       	cpc	r1, r25
    1e8c:	cc f4       	brge	.+50     	; 0x1ec0 <_ZN11EthernetUDP11parsePacketEv+0x90>
    1e8e:	be 01       	movw	r22, r28
    1e90:	6f 5f       	subi	r22, 0xFF	; 255
    1e92:	7f 4f       	sbci	r23, 0xFF	; 255
    1e94:	c8 01       	movw	r24, r16
    1e96:	0e 96       	adiw	r24, 0x0e	; 14
    1e98:	42 d3       	rcall	.+1668   	; 0x251e <_ZN9IPAddressaSEPKh>
    1e9a:	8d 81       	ldd	r24, Y+5	; 0x05
    1e9c:	90 e0       	ldi	r25, 0x00	; 0
    1e9e:	98 2f       	mov	r25, r24
    1ea0:	88 27       	eor	r24, r24
    1ea2:	2e 81       	ldd	r18, Y+6	; 0x06
    1ea4:	82 0f       	add	r24, r18
    1ea6:	91 1d       	adc	r25, r1
    1ea8:	f8 01       	movw	r30, r16
    1eaa:	95 8b       	std	Z+21, r25	; 0x15
    1eac:	84 8b       	std	Z+20, r24	; 0x14
    1eae:	2f 81       	ldd	r18, Y+7	; 0x07
    1eb0:	30 e0       	ldi	r19, 0x00	; 0
    1eb2:	32 2f       	mov	r19, r18
    1eb4:	22 27       	eor	r18, r18
    1eb6:	88 85       	ldd	r24, Y+8	; 0x08
    1eb8:	28 0f       	add	r18, r24
    1eba:	31 1d       	adc	r19, r1
    1ebc:	32 8f       	std	Z+26, r19	; 0x1a
    1ebe:	21 8f       	std	Z+25, r18	; 0x19
    1ec0:	c9 01       	movw	r24, r18
    1ec2:	02 c0       	rjmp	.+4      	; 0x1ec8 <_ZN11EthernetUDP11parsePacketEv+0x98>
    1ec4:	80 e0       	ldi	r24, 0x00	; 0
    1ec6:	90 e0       	ldi	r25, 0x00	; 0
    1ec8:	28 96       	adiw	r28, 0x08	; 8
    1eca:	0f b6       	in	r0, 0x3f	; 63
    1ecc:	f8 94       	cli
    1ece:	de bf       	out	0x3e, r29	; 62
    1ed0:	0f be       	out	0x3f, r0	; 63
    1ed2:	cd bf       	out	0x3d, r28	; 61
    1ed4:	df 91       	pop	r29
    1ed6:	cf 91       	pop	r28
    1ed8:	1f 91       	pop	r17
    1eda:	0f 91       	pop	r16
    1edc:	08 95       	ret

00001ede <_ZN11EthernetUDP14beginMulticastE9IPAddressj>:
    1ede:	8f 92       	push	r8
    1ee0:	9f 92       	push	r9
    1ee2:	af 92       	push	r10
    1ee4:	bf 92       	push	r11
    1ee6:	cf 92       	push	r12
    1ee8:	df 92       	push	r13
    1eea:	ef 92       	push	r14
    1eec:	ff 92       	push	r15
    1eee:	0f 93       	push	r16
    1ef0:	1f 93       	push	r17
    1ef2:	cf 93       	push	r28
    1ef4:	df 93       	push	r29
    1ef6:	00 d0       	rcall	.+0      	; 0x1ef8 <_ZN11EthernetUDP14beginMulticastE9IPAddressj+0x1a>
    1ef8:	00 d0       	rcall	.+0      	; 0x1efa <_ZN11EthernetUDP14beginMulticastE9IPAddressj+0x1c>
    1efa:	00 d0       	rcall	.+0      	; 0x1efc <_ZN11EthernetUDP14beginMulticastE9IPAddressj+0x1e>
    1efc:	cd b7       	in	r28, 0x3d	; 61
    1efe:	de b7       	in	r29, 0x3e	; 62
    1f00:	fc 01       	movw	r30, r24
    1f02:	20 8d       	ldd	r18, Z+24	; 0x18
    1f04:	24 30       	cpi	r18, 0x04	; 4
    1f06:	09 f0       	breq	.+2      	; 0x1f0a <_ZN11EthernetUDP14beginMulticastE9IPAddressj+0x2c>
    1f08:	63 c0       	rjmp	.+198    	; 0x1fd0 <_ZN11EthernetUDP14beginMulticastE9IPAddressj+0xf2>
    1f0a:	6a 01       	movw	r12, r20
    1f0c:	7b 01       	movw	r14, r22
    1f0e:	8c 01       	movw	r16, r24
    1f10:	53 e0       	ldi	r21, 0x03	; 3
    1f12:	85 2e       	mov	r8, r21
    1f14:	54 e0       	ldi	r21, 0x04	; 4
    1f16:	95 2e       	mov	r9, r21
    1f18:	a1 2c       	mov	r10, r1
    1f1a:	b1 2c       	mov	r11, r1
    1f1c:	c4 01       	movw	r24, r8
    1f1e:	8d d9       	rcall	.-3302   	; 0x123a <_ZN10W5100Class4readEj>
    1f20:	81 11       	cpse	r24, r1
    1f22:	03 c0       	rjmp	.+6      	; 0x1f2a <_ZN11EthernetUDP14beginMulticastE9IPAddressj+0x4c>
    1f24:	f8 01       	movw	r30, r16
    1f26:	a0 8e       	std	Z+24, r10	; 0x18
    1f28:	0a c0       	rjmp	.+20     	; 0x1f3e <_ZN11EthernetUDP14beginMulticastE9IPAddressj+0x60>
    1f2a:	88 31       	cpi	r24, 0x18	; 24
    1f2c:	d9 f3       	breq	.-10     	; 0x1f24 <_ZN11EthernetUDP14beginMulticastE9IPAddressj+0x46>
    1f2e:	ff ef       	ldi	r31, 0xFF	; 255
    1f30:	af 1a       	sub	r10, r31
    1f32:	bf 0a       	sbc	r11, r31
    1f34:	93 94       	inc	r9
    1f36:	e4 e0       	ldi	r30, 0x04	; 4
    1f38:	ae 16       	cp	r10, r30
    1f3a:	b1 04       	cpc	r11, r1
    1f3c:	79 f7       	brne	.-34     	; 0x1f1c <_ZN11EthernetUDP14beginMulticastE9IPAddressj+0x3e>
    1f3e:	f8 01       	movw	r30, r16
    1f40:	80 8d       	ldd	r24, Z+24	; 0x18
    1f42:	84 30       	cpi	r24, 0x04	; 4
    1f44:	09 f4       	brne	.+2      	; 0x1f48 <_ZN11EthernetUDP14beginMulticastE9IPAddressj+0x6a>
    1f46:	44 c0       	rjmp	.+136    	; 0x1fd0 <_ZN11EthernetUDP14beginMulticastE9IPAddressj+0xf2>
    1f48:	96 e0       	ldi	r25, 0x06	; 6
    1f4a:	e6 e1       	ldi	r30, 0x16	; 22
    1f4c:	f1 e0       	ldi	r31, 0x01	; 1
    1f4e:	de 01       	movw	r26, r28
    1f50:	11 96       	adiw	r26, 0x01	; 1
    1f52:	01 90       	ld	r0, Z+
    1f54:	0d 92       	st	X+, r0
    1f56:	9a 95       	dec	r25
    1f58:	e1 f7       	brne	.-8      	; 0x1f52 <_ZN11EthernetUDP14beginMulticastE9IPAddressj+0x74>
    1f5a:	f7 01       	movw	r30, r14
    1f5c:	93 81       	ldd	r25, Z+3	; 0x03
    1f5e:	9f 77       	andi	r25, 0x7F	; 127
    1f60:	9c 83       	std	Y+4, r25	; 0x04
    1f62:	94 81       	ldd	r25, Z+4	; 0x04
    1f64:	9d 83       	std	Y+5, r25	; 0x05
    1f66:	95 81       	ldd	r25, Z+5	; 0x05
    1f68:	9e 83       	std	Y+6, r25	; 0x06
    1f6a:	b7 01       	movw	r22, r14
    1f6c:	6e 5f       	subi	r22, 0xFE	; 254
    1f6e:	7f 4f       	sbci	r23, 0xFF	; 255
    1f70:	90 e0       	ldi	r25, 0x00	; 0
    1f72:	98 2f       	mov	r25, r24
    1f74:	88 27       	eor	r24, r24
    1f76:	44 e0       	ldi	r20, 0x04	; 4
    1f78:	50 e0       	ldi	r21, 0x00	; 0
    1f7a:	84 5f       	subi	r24, 0xF4	; 244
    1f7c:	9b 4f       	sbci	r25, 0xFB	; 251
    1f7e:	34 d9       	rcall	.-3480   	; 0x11e8 <_ZN10W5100Class5writeEjPKhj>
    1f80:	f8 01       	movw	r30, r16
    1f82:	e0 8c       	ldd	r14, Z+24	; 0x18
    1f84:	f1 2c       	mov	r15, r1
    1f86:	f4 e0       	ldi	r31, 0x04	; 4
    1f88:	ef 0e       	add	r14, r31
    1f8a:	f1 1c       	adc	r15, r1
    1f8c:	fe 2c       	mov	r15, r14
    1f8e:	ee 24       	eor	r14, r14
    1f90:	6d 2d       	mov	r22, r13
    1f92:	c7 01       	movw	r24, r14
    1f94:	40 96       	adiw	r24, 0x10	; 16
    1f96:	99 d8       	rcall	.-3790   	; 0x10ca <_ZN10W5100Class5writeEjh>
    1f98:	6c 2d       	mov	r22, r12
    1f9a:	c7 01       	movw	r24, r14
    1f9c:	41 96       	adiw	r24, 0x11	; 17
    1f9e:	95 d8       	rcall	.-3798   	; 0x10ca <_ZN10W5100Class5writeEjh>
    1fa0:	f8 01       	movw	r30, r16
    1fa2:	80 8d       	ldd	r24, Z+24	; 0x18
    1fa4:	90 e0       	ldi	r25, 0x00	; 0
    1fa6:	98 2f       	mov	r25, r24
    1fa8:	88 27       	eor	r24, r24
    1faa:	46 e0       	ldi	r20, 0x06	; 6
    1fac:	50 e0       	ldi	r21, 0x00	; 0
    1fae:	be 01       	movw	r22, r28
    1fb0:	6f 5f       	subi	r22, 0xFF	; 255
    1fb2:	7f 4f       	sbci	r23, 0xFF	; 255
    1fb4:	8a 5f       	subi	r24, 0xFA	; 250
    1fb6:	9b 4f       	sbci	r25, 0xFB	; 251
    1fb8:	17 d9       	rcall	.-3538   	; 0x11e8 <_ZN10W5100Class5writeEjPKhj>
    1fba:	f8 01       	movw	r30, r16
    1fbc:	12 8e       	std	Z+26, r1	; 0x1a
    1fbe:	11 8e       	std	Z+25, r1	; 0x19
    1fc0:	20 e8       	ldi	r18, 0x80	; 128
    1fc2:	a6 01       	movw	r20, r12
    1fc4:	62 e0       	ldi	r22, 0x02	; 2
    1fc6:	80 8d       	ldd	r24, Z+24	; 0x18
    1fc8:	0e 94 76 06 	call	0xcec	; 0xcec <_Z6sockethhjh>
    1fcc:	81 e0       	ldi	r24, 0x01	; 1
    1fce:	01 c0       	rjmp	.+2      	; 0x1fd2 <_ZN11EthernetUDP14beginMulticastE9IPAddressj+0xf4>
    1fd0:	80 e0       	ldi	r24, 0x00	; 0
    1fd2:	26 96       	adiw	r28, 0x06	; 6
    1fd4:	0f b6       	in	r0, 0x3f	; 63
    1fd6:	f8 94       	cli
    1fd8:	de bf       	out	0x3e, r29	; 62
    1fda:	0f be       	out	0x3f, r0	; 63
    1fdc:	cd bf       	out	0x3d, r28	; 61
    1fde:	df 91       	pop	r29
    1fe0:	cf 91       	pop	r28
    1fe2:	1f 91       	pop	r17
    1fe4:	0f 91       	pop	r16
    1fe6:	ff 90       	pop	r15
    1fe8:	ef 90       	pop	r14
    1fea:	df 90       	pop	r13
    1fec:	cf 90       	pop	r12
    1fee:	bf 90       	pop	r11
    1ff0:	af 90       	pop	r10
    1ff2:	9f 90       	pop	r9
    1ff4:	8f 90       	pop	r8
    1ff6:	08 95       	ret

00001ff8 <_ZN11EthernetUDPC1Ev>:
    1ff8:	cf 93       	push	r28
    1ffa:	df 93       	push	r29
    1ffc:	ec 01       	movw	r28, r24
    1ffe:	1b 82       	std	Y+3, r1	; 0x03
    2000:	1a 82       	std	Y+2, r1	; 0x02
    2002:	88 ee       	ldi	r24, 0xE8	; 232
    2004:	93 e0       	ldi	r25, 0x03	; 3
    2006:	a0 e0       	ldi	r26, 0x00	; 0
    2008:	b0 e0       	ldi	r27, 0x00	; 0
    200a:	8c 83       	std	Y+4, r24	; 0x04
    200c:	9d 83       	std	Y+5, r25	; 0x05
    200e:	ae 83       	std	Y+6, r26	; 0x06
    2010:	bf 83       	std	Y+7, r27	; 0x07
    2012:	81 ee       	ldi	r24, 0xE1	; 225
    2014:	91 e0       	ldi	r25, 0x01	; 1
    2016:	99 83       	std	Y+1, r25	; 0x01
    2018:	88 83       	st	Y, r24
    201a:	ce 01       	movw	r24, r28
    201c:	0e 96       	adiw	r24, 0x0e	; 14
    201e:	59 d2       	rcall	.+1202   	; 0x24d2 <_ZN9IPAddressC1Ev>
    2020:	84 e0       	ldi	r24, 0x04	; 4
    2022:	88 8f       	std	Y+24, r24	; 0x18
    2024:	df 91       	pop	r29
    2026:	cf 91       	pop	r28
    2028:	08 95       	ret

0000202a <_ZN11EthernetUDP11beginPacketEPKcj>:
    202a:	cf 92       	push	r12
    202c:	df 92       	push	r13
    202e:	ef 92       	push	r14
    2030:	ff 92       	push	r15
    2032:	0f 93       	push	r16
    2034:	1f 93       	push	r17
    2036:	cf 93       	push	r28
    2038:	df 93       	push	r29
    203a:	cd b7       	in	r28, 0x3d	; 61
    203c:	de b7       	in	r29, 0x3e	; 62
    203e:	af 97       	sbiw	r28, 0x2f	; 47
    2040:	0f b6       	in	r0, 0x3f	; 63
    2042:	f8 94       	cli
    2044:	de bf       	out	0x3e, r29	; 62
    2046:	0f be       	out	0x3f, r0	; 63
    2048:	cd bf       	out	0x3d, r28	; 61
    204a:	8c 01       	movw	r16, r24
    204c:	6b 01       	movw	r12, r22
    204e:	7a 01       	movw	r14, r20
    2050:	ce 01       	movw	r24, r28
    2052:	01 96       	adiw	r24, 0x01	; 1
    2054:	3e d2       	rcall	.+1148   	; 0x24d2 <_ZN9IPAddressC1Ev>
    2056:	ce 01       	movw	r24, r28
    2058:	09 96       	adiw	r24, 0x09	; 9
    205a:	ce df       	rcall	.-100    	; 0x1ff8 <_ZN11EthernetUDPC1Ev>
    205c:	ce 01       	movw	r24, r28
    205e:	8a 96       	adiw	r24, 0x2a	; 42
    2060:	38 d2       	rcall	.+1136   	; 0x24d2 <_ZN9IPAddressC1Ev>
    2062:	64 e6       	ldi	r22, 0x64	; 100
    2064:	72 e0       	ldi	r23, 0x02	; 2
    2066:	ce 01       	movw	r24, r28
    2068:	84 96       	adiw	r24, 0x24	; 36
    206a:	be dd       	rcall	.-1156   	; 0x1be8 <_ZN13EthernetClass11dnsServerIPEv>
    206c:	be 01       	movw	r22, r28
    206e:	6c 5d       	subi	r22, 0xDC	; 220
    2070:	7f 4f       	sbci	r23, 0xFF	; 255
    2072:	ce 01       	movw	r24, r28
    2074:	01 96       	adiw	r24, 0x01	; 1
    2076:	96 da       	rcall	.-2772   	; 0x15a4 <_ZN9DNSClient5beginERK9IPAddress>
    2078:	ae 01       	movw	r20, r28
    207a:	46 5d       	subi	r20, 0xD6	; 214
    207c:	5f 4f       	sbci	r21, 0xFF	; 255
    207e:	b6 01       	movw	r22, r12
    2080:	ce 01       	movw	r24, r28
    2082:	01 96       	adiw	r24, 0x01	; 1
    2084:	d4 dc       	rcall	.-1624   	; 0x1a2e <_ZN9DNSClient13getHostByNameEPKcR9IPAddress>
    2086:	81 30       	cpi	r24, 0x01	; 1
    2088:	91 05       	cpc	r25, r1
    208a:	c1 f4       	brne	.+48     	; 0x20bc <_ZN11EthernetUDP11beginPacketEPKcj+0x92>
    208c:	d8 01       	movw	r26, r16
    208e:	ed 91       	ld	r30, X+
    2090:	fc 91       	ld	r31, X
    2092:	00 88       	ldd	r0, Z+16	; 0x10
    2094:	f1 89       	ldd	r31, Z+17	; 0x11
    2096:	e0 2d       	mov	r30, r0
    2098:	87 e1       	ldi	r24, 0x17	; 23
    209a:	92 e0       	ldi	r25, 0x02	; 2
    209c:	9d a3       	std	Y+37, r25	; 0x25
    209e:	8c a3       	std	Y+36, r24	; 0x24
    20a0:	8c a5       	ldd	r24, Y+44	; 0x2c
    20a2:	9d a5       	ldd	r25, Y+45	; 0x2d
    20a4:	ae a5       	ldd	r26, Y+46	; 0x2e
    20a6:	bf a5       	ldd	r27, Y+47	; 0x2f
    20a8:	8e a3       	std	Y+38, r24	; 0x26
    20aa:	9f a3       	std	Y+39, r25	; 0x27
    20ac:	a8 a7       	std	Y+40, r26	; 0x28
    20ae:	b9 a7       	std	Y+41, r27	; 0x29
    20b0:	a7 01       	movw	r20, r14
    20b2:	be 01       	movw	r22, r28
    20b4:	6c 5d       	subi	r22, 0xDC	; 220
    20b6:	7f 4f       	sbci	r23, 0xFF	; 255
    20b8:	c8 01       	movw	r24, r16
    20ba:	09 95       	icall
    20bc:	af 96       	adiw	r28, 0x2f	; 47
    20be:	0f b6       	in	r0, 0x3f	; 63
    20c0:	f8 94       	cli
    20c2:	de bf       	out	0x3e, r29	; 62
    20c4:	0f be       	out	0x3f, r0	; 63
    20c6:	cd bf       	out	0x3d, r28	; 61
    20c8:	df 91       	pop	r29
    20ca:	cf 91       	pop	r28
    20cc:	1f 91       	pop	r17
    20ce:	0f 91       	pop	r16
    20d0:	ff 90       	pop	r15
    20d2:	ef 90       	pop	r14
    20d4:	df 90       	pop	r13
    20d6:	cf 90       	pop	r12
    20d8:	08 95       	ret

000020da <_GLOBAL__sub_I__ZN11EthernetUDPC2Ev>:
    20da:	0f 93       	push	r16
    20dc:	00 e0       	ldi	r16, 0x00	; 0
    20de:	20 e0       	ldi	r18, 0x00	; 0
    20e0:	40 e0       	ldi	r20, 0x00	; 0
    20e2:	60 e0       	ldi	r22, 0x00	; 0
    20e4:	86 e8       	ldi	r24, 0x86	; 134
    20e6:	92 e0       	ldi	r25, 0x02	; 2
    20e8:	fe d1       	rcall	.+1020   	; 0x24e6 <_ZN9IPAddressC1Ehhhh>
    20ea:	0f 91       	pop	r16
    20ec:	08 95       	ret

000020ee <_ZN14HardwareSerial9availableEv>:
    20ee:	fc 01       	movw	r30, r24
    20f0:	91 8d       	ldd	r25, Z+25	; 0x19
    20f2:	22 8d       	ldd	r18, Z+26	; 0x1a
    20f4:	89 2f       	mov	r24, r25
    20f6:	90 e0       	ldi	r25, 0x00	; 0
    20f8:	80 5c       	subi	r24, 0xC0	; 192
    20fa:	9f 4f       	sbci	r25, 0xFF	; 255
    20fc:	82 1b       	sub	r24, r18
    20fe:	91 09       	sbc	r25, r1
    2100:	8f 73       	andi	r24, 0x3F	; 63
    2102:	99 27       	eor	r25, r25
    2104:	08 95       	ret

00002106 <_ZN14HardwareSerial4peekEv>:
    2106:	fc 01       	movw	r30, r24
    2108:	91 8d       	ldd	r25, Z+25	; 0x19
    210a:	82 8d       	ldd	r24, Z+26	; 0x1a
    210c:	98 17       	cp	r25, r24
    210e:	31 f0       	breq	.+12     	; 0x211c <_ZN14HardwareSerial4peekEv+0x16>
    2110:	82 8d       	ldd	r24, Z+26	; 0x1a
    2112:	e8 0f       	add	r30, r24
    2114:	f1 1d       	adc	r31, r1
    2116:	85 8d       	ldd	r24, Z+29	; 0x1d
    2118:	90 e0       	ldi	r25, 0x00	; 0
    211a:	08 95       	ret
    211c:	8f ef       	ldi	r24, 0xFF	; 255
    211e:	9f ef       	ldi	r25, 0xFF	; 255
    2120:	08 95       	ret

00002122 <_ZN14HardwareSerial4readEv>:
    2122:	fc 01       	movw	r30, r24
    2124:	91 8d       	ldd	r25, Z+25	; 0x19
    2126:	82 8d       	ldd	r24, Z+26	; 0x1a
    2128:	98 17       	cp	r25, r24
    212a:	61 f0       	breq	.+24     	; 0x2144 <_ZN14HardwareSerial4readEv+0x22>
    212c:	82 8d       	ldd	r24, Z+26	; 0x1a
    212e:	df 01       	movw	r26, r30
    2130:	a8 0f       	add	r26, r24
    2132:	b1 1d       	adc	r27, r1
    2134:	5d 96       	adiw	r26, 0x1d	; 29
    2136:	8c 91       	ld	r24, X
    2138:	92 8d       	ldd	r25, Z+26	; 0x1a
    213a:	9f 5f       	subi	r25, 0xFF	; 255
    213c:	9f 73       	andi	r25, 0x3F	; 63
    213e:	92 8f       	std	Z+26, r25	; 0x1a
    2140:	90 e0       	ldi	r25, 0x00	; 0
    2142:	08 95       	ret
    2144:	8f ef       	ldi	r24, 0xFF	; 255
    2146:	9f ef       	ldi	r25, 0xFF	; 255
    2148:	08 95       	ret

0000214a <_Z14serialEventRunv>:
    214a:	84 ef       	ldi	r24, 0xF4	; 244
    214c:	91 e1       	ldi	r25, 0x11	; 17
    214e:	89 2b       	or	r24, r25
    2150:	41 f0       	breq	.+16     	; 0x2162 <_Z14serialEventRunv+0x18>
    2152:	80 e0       	ldi	r24, 0x00	; 0
    2154:	90 e0       	ldi	r25, 0x00	; 0
    2156:	89 2b       	or	r24, r25
    2158:	21 f0       	breq	.+8      	; 0x2162 <_Z14serialEventRunv+0x18>
    215a:	46 d1       	rcall	.+652    	; 0x23e8 <_Z17Serial0_availablev>
    215c:	81 11       	cpse	r24, r1
    215e:	0c 94 00 00 	jmp	0	; 0x0 <__vectors>
    2162:	08 95       	ret

00002164 <_ZN14HardwareSerial17_tx_udr_empty_irqEv>:
    2164:	fc 01       	movw	r30, r24
    2166:	84 8d       	ldd	r24, Z+28	; 0x1c
    2168:	df 01       	movw	r26, r30
    216a:	a8 0f       	add	r26, r24
    216c:	b1 1d       	adc	r27, r1
    216e:	a3 5a       	subi	r26, 0xA3	; 163
    2170:	bf 4f       	sbci	r27, 0xFF	; 255
    2172:	2c 91       	ld	r18, X
    2174:	84 8d       	ldd	r24, Z+28	; 0x1c
    2176:	90 e0       	ldi	r25, 0x00	; 0
    2178:	01 96       	adiw	r24, 0x01	; 1
    217a:	8f 73       	andi	r24, 0x3F	; 63
    217c:	99 27       	eor	r25, r25
    217e:	84 8f       	std	Z+28, r24	; 0x1c
    2180:	a6 89       	ldd	r26, Z+22	; 0x16
    2182:	b7 89       	ldd	r27, Z+23	; 0x17
    2184:	2c 93       	st	X, r18
    2186:	a0 89       	ldd	r26, Z+16	; 0x10
    2188:	b1 89       	ldd	r27, Z+17	; 0x11
    218a:	8c 91       	ld	r24, X
    218c:	80 64       	ori	r24, 0x40	; 64
    218e:	8c 93       	st	X, r24
    2190:	93 8d       	ldd	r25, Z+27	; 0x1b
    2192:	84 8d       	ldd	r24, Z+28	; 0x1c
    2194:	98 13       	cpse	r25, r24
    2196:	06 c0       	rjmp	.+12     	; 0x21a4 <_ZN14HardwareSerial17_tx_udr_empty_irqEv+0x40>
    2198:	02 88       	ldd	r0, Z+18	; 0x12
    219a:	f3 89       	ldd	r31, Z+19	; 0x13
    219c:	e0 2d       	mov	r30, r0
    219e:	80 81       	ld	r24, Z
    21a0:	8f 7d       	andi	r24, 0xDF	; 223
    21a2:	80 83       	st	Z, r24
    21a4:	08 95       	ret

000021a6 <_ZN14HardwareSerial5flushEv>:
    21a6:	cf 93       	push	r28
    21a8:	df 93       	push	r29
    21aa:	ec 01       	movw	r28, r24
    21ac:	88 8d       	ldd	r24, Y+24	; 0x18
    21ae:	88 23       	and	r24, r24
    21b0:	c1 f0       	breq	.+48     	; 0x21e2 <_ZN14HardwareSerial5flushEv+0x3c>
    21b2:	ea 89       	ldd	r30, Y+18	; 0x12
    21b4:	fb 89       	ldd	r31, Y+19	; 0x13
    21b6:	80 81       	ld	r24, Z
    21b8:	85 fd       	sbrc	r24, 5
    21ba:	05 c0       	rjmp	.+10     	; 0x21c6 <_ZN14HardwareSerial5flushEv+0x20>
    21bc:	a8 89       	ldd	r26, Y+16	; 0x10
    21be:	b9 89       	ldd	r27, Y+17	; 0x11
    21c0:	8c 91       	ld	r24, X
    21c2:	86 fd       	sbrc	r24, 6
    21c4:	0e c0       	rjmp	.+28     	; 0x21e2 <_ZN14HardwareSerial5flushEv+0x3c>
    21c6:	0f b6       	in	r0, 0x3f	; 63
    21c8:	07 fc       	sbrc	r0, 7
    21ca:	f5 cf       	rjmp	.-22     	; 0x21b6 <_ZN14HardwareSerial5flushEv+0x10>
    21cc:	80 81       	ld	r24, Z
    21ce:	85 ff       	sbrs	r24, 5
    21d0:	f2 cf       	rjmp	.-28     	; 0x21b6 <_ZN14HardwareSerial5flushEv+0x10>
    21d2:	a8 89       	ldd	r26, Y+16	; 0x10
    21d4:	b9 89       	ldd	r27, Y+17	; 0x11
    21d6:	8c 91       	ld	r24, X
    21d8:	85 ff       	sbrs	r24, 5
    21da:	ed cf       	rjmp	.-38     	; 0x21b6 <_ZN14HardwareSerial5flushEv+0x10>
    21dc:	ce 01       	movw	r24, r28
    21de:	c2 df       	rcall	.-124    	; 0x2164 <_ZN14HardwareSerial17_tx_udr_empty_irqEv>
    21e0:	e8 cf       	rjmp	.-48     	; 0x21b2 <_ZN14HardwareSerial5flushEv+0xc>
    21e2:	df 91       	pop	r29
    21e4:	cf 91       	pop	r28
    21e6:	08 95       	ret

000021e8 <_ZN14HardwareSerial5writeEh>:
    21e8:	ef 92       	push	r14
    21ea:	ff 92       	push	r15
    21ec:	0f 93       	push	r16
    21ee:	1f 93       	push	r17
    21f0:	cf 93       	push	r28
    21f2:	df 93       	push	r29
    21f4:	ec 01       	movw	r28, r24
    21f6:	81 e0       	ldi	r24, 0x01	; 1
    21f8:	88 8f       	std	Y+24, r24	; 0x18
    21fa:	9b 8d       	ldd	r25, Y+27	; 0x1b
    21fc:	8c 8d       	ldd	r24, Y+28	; 0x1c
    21fe:	98 13       	cpse	r25, r24
    2200:	05 c0       	rjmp	.+10     	; 0x220c <_ZN14HardwareSerial5writeEh+0x24>
    2202:	e8 89       	ldd	r30, Y+16	; 0x10
    2204:	f9 89       	ldd	r31, Y+17	; 0x11
    2206:	80 81       	ld	r24, Z
    2208:	85 fd       	sbrc	r24, 5
    220a:	23 c0       	rjmp	.+70     	; 0x2252 <_ZN14HardwareSerial5writeEh+0x6a>
    220c:	f6 2e       	mov	r15, r22
    220e:	0b 8d       	ldd	r16, Y+27	; 0x1b
    2210:	10 e0       	ldi	r17, 0x00	; 0
    2212:	0f 5f       	subi	r16, 0xFF	; 255
    2214:	1f 4f       	sbci	r17, 0xFF	; 255
    2216:	0f 73       	andi	r16, 0x3F	; 63
    2218:	11 27       	eor	r17, r17
    221a:	e0 2e       	mov	r14, r16
    221c:	8c 8d       	ldd	r24, Y+28	; 0x1c
    221e:	e8 12       	cpse	r14, r24
    2220:	0b c0       	rjmp	.+22     	; 0x2238 <_ZN14HardwareSerial5writeEh+0x50>
    2222:	0f b6       	in	r0, 0x3f	; 63
    2224:	07 fc       	sbrc	r0, 7
    2226:	fa cf       	rjmp	.-12     	; 0x221c <_ZN14HardwareSerial5writeEh+0x34>
    2228:	e8 89       	ldd	r30, Y+16	; 0x10
    222a:	f9 89       	ldd	r31, Y+17	; 0x11
    222c:	80 81       	ld	r24, Z
    222e:	85 ff       	sbrs	r24, 5
    2230:	f5 cf       	rjmp	.-22     	; 0x221c <_ZN14HardwareSerial5writeEh+0x34>
    2232:	ce 01       	movw	r24, r28
    2234:	97 df       	rcall	.-210    	; 0x2164 <_ZN14HardwareSerial17_tx_udr_empty_irqEv>
    2236:	f2 cf       	rjmp	.-28     	; 0x221c <_ZN14HardwareSerial5writeEh+0x34>
    2238:	8b 8d       	ldd	r24, Y+27	; 0x1b
    223a:	fe 01       	movw	r30, r28
    223c:	e8 0f       	add	r30, r24
    223e:	f1 1d       	adc	r31, r1
    2240:	e3 5a       	subi	r30, 0xA3	; 163
    2242:	ff 4f       	sbci	r31, 0xFF	; 255
    2244:	f0 82       	st	Z, r15
    2246:	0b 8f       	std	Y+27, r16	; 0x1b
    2248:	ea 89       	ldd	r30, Y+18	; 0x12
    224a:	fb 89       	ldd	r31, Y+19	; 0x13
    224c:	80 81       	ld	r24, Z
    224e:	80 62       	ori	r24, 0x20	; 32
    2250:	07 c0       	rjmp	.+14     	; 0x2260 <_ZN14HardwareSerial5writeEh+0x78>
    2252:	ee 89       	ldd	r30, Y+22	; 0x16
    2254:	ff 89       	ldd	r31, Y+23	; 0x17
    2256:	60 83       	st	Z, r22
    2258:	e8 89       	ldd	r30, Y+16	; 0x10
    225a:	f9 89       	ldd	r31, Y+17	; 0x11
    225c:	80 81       	ld	r24, Z
    225e:	80 64       	ori	r24, 0x40	; 64
    2260:	80 83       	st	Z, r24
    2262:	81 e0       	ldi	r24, 0x01	; 1
    2264:	90 e0       	ldi	r25, 0x00	; 0
    2266:	df 91       	pop	r29
    2268:	cf 91       	pop	r28
    226a:	1f 91       	pop	r17
    226c:	0f 91       	pop	r16
    226e:	ff 90       	pop	r15
    2270:	ef 90       	pop	r14
    2272:	08 95       	ret

00002274 <_ZN14HardwareSerial5beginEmh>:
    2274:	cf 92       	push	r12
    2276:	df 92       	push	r13
    2278:	ef 92       	push	r14
    227a:	ff 92       	push	r15
    227c:	1f 93       	push	r17
    227e:	cf 93       	push	r28
    2280:	df 93       	push	r29
    2282:	ec 01       	movw	r28, r24
    2284:	6a 01       	movw	r12, r20
    2286:	7b 01       	movw	r14, r22
    2288:	12 2f       	mov	r17, r18
    228a:	e8 89       	ldd	r30, Y+16	; 0x10
    228c:	f9 89       	ldd	r31, Y+17	; 0x11
    228e:	82 e0       	ldi	r24, 0x02	; 2
    2290:	80 83       	st	Z, r24
    2292:	41 15       	cp	r20, r1
    2294:	51 4e       	sbci	r21, 0xE1	; 225
    2296:	61 05       	cpc	r22, r1
    2298:	71 05       	cpc	r23, r1
    229a:	a9 f0       	breq	.+42     	; 0x22c6 <_ZN14HardwareSerial5beginEmh+0x52>
    229c:	60 e0       	ldi	r22, 0x00	; 0
    229e:	79 e0       	ldi	r23, 0x09	; 9
    22a0:	8d e3       	ldi	r24, 0x3D	; 61
    22a2:	90 e0       	ldi	r25, 0x00	; 0
    22a4:	a7 01       	movw	r20, r14
    22a6:	96 01       	movw	r18, r12
    22a8:	65 d5       	rcall	.+2762   	; 0x2d74 <__udivmodsi4>
    22aa:	da 01       	movw	r26, r20
    22ac:	c9 01       	movw	r24, r18
    22ae:	01 97       	sbiw	r24, 0x01	; 1
    22b0:	a1 09       	sbc	r26, r1
    22b2:	b1 09       	sbc	r27, r1
    22b4:	b6 95       	lsr	r27
    22b6:	a7 95       	ror	r26
    22b8:	97 95       	ror	r25
    22ba:	87 95       	ror	r24
    22bc:	ac 01       	movw	r20, r24
    22be:	41 15       	cp	r20, r1
    22c0:	80 e1       	ldi	r24, 0x10	; 16
    22c2:	58 07       	cpc	r21, r24
    22c4:	a0 f0       	brcs	.+40     	; 0x22ee <_ZN14HardwareSerial5beginEmh+0x7a>
    22c6:	e8 89       	ldd	r30, Y+16	; 0x10
    22c8:	f9 89       	ldd	r31, Y+17	; 0x11
    22ca:	10 82       	st	Z, r1
    22cc:	60 e8       	ldi	r22, 0x80	; 128
    22ce:	74 e8       	ldi	r23, 0x84	; 132
    22d0:	8e e1       	ldi	r24, 0x1E	; 30
    22d2:	90 e0       	ldi	r25, 0x00	; 0
    22d4:	a7 01       	movw	r20, r14
    22d6:	96 01       	movw	r18, r12
    22d8:	4d d5       	rcall	.+2714   	; 0x2d74 <__udivmodsi4>
    22da:	ba 01       	movw	r22, r20
    22dc:	a9 01       	movw	r20, r18
    22de:	41 50       	subi	r20, 0x01	; 1
    22e0:	51 09       	sbc	r21, r1
    22e2:	61 09       	sbc	r22, r1
    22e4:	71 09       	sbc	r23, r1
    22e6:	76 95       	lsr	r23
    22e8:	67 95       	ror	r22
    22ea:	57 95       	ror	r21
    22ec:	47 95       	ror	r20
    22ee:	ec 85       	ldd	r30, Y+12	; 0x0c
    22f0:	fd 85       	ldd	r31, Y+13	; 0x0d
    22f2:	50 83       	st	Z, r21
    22f4:	ee 85       	ldd	r30, Y+14	; 0x0e
    22f6:	ff 85       	ldd	r31, Y+15	; 0x0f
    22f8:	40 83       	st	Z, r20
    22fa:	18 8e       	std	Y+24, r1	; 0x18
    22fc:	ec 89       	ldd	r30, Y+20	; 0x14
    22fe:	fd 89       	ldd	r31, Y+21	; 0x15
    2300:	10 83       	st	Z, r17
    2302:	ea 89       	ldd	r30, Y+18	; 0x12
    2304:	fb 89       	ldd	r31, Y+19	; 0x13
    2306:	80 81       	ld	r24, Z
    2308:	80 61       	ori	r24, 0x10	; 16
    230a:	80 83       	st	Z, r24
    230c:	ea 89       	ldd	r30, Y+18	; 0x12
    230e:	fb 89       	ldd	r31, Y+19	; 0x13
    2310:	80 81       	ld	r24, Z
    2312:	88 60       	ori	r24, 0x08	; 8
    2314:	80 83       	st	Z, r24
    2316:	ea 89       	ldd	r30, Y+18	; 0x12
    2318:	fb 89       	ldd	r31, Y+19	; 0x13
    231a:	80 81       	ld	r24, Z
    231c:	80 68       	ori	r24, 0x80	; 128
    231e:	80 83       	st	Z, r24
    2320:	ea 89       	ldd	r30, Y+18	; 0x12
    2322:	fb 89       	ldd	r31, Y+19	; 0x13
    2324:	80 81       	ld	r24, Z
    2326:	8f 7d       	andi	r24, 0xDF	; 223
    2328:	80 83       	st	Z, r24
    232a:	df 91       	pop	r29
    232c:	cf 91       	pop	r28
    232e:	1f 91       	pop	r17
    2330:	ff 90       	pop	r15
    2332:	ef 90       	pop	r14
    2334:	df 90       	pop	r13
    2336:	cf 90       	pop	r12
    2338:	08 95       	ret

0000233a <__vector_18>:
    233a:	1f 92       	push	r1
    233c:	0f 92       	push	r0
    233e:	0f b6       	in	r0, 0x3f	; 63
    2340:	0f 92       	push	r0
    2342:	11 24       	eor	r1, r1
    2344:	2f 93       	push	r18
    2346:	8f 93       	push	r24
    2348:	9f 93       	push	r25
    234a:	ef 93       	push	r30
    234c:	ff 93       	push	r31
    234e:	e0 91 9c 02 	lds	r30, 0x029C	; 0x80029c <Serial+0x10>
    2352:	f0 91 9d 02 	lds	r31, 0x029D	; 0x80029d <Serial+0x11>
    2356:	80 81       	ld	r24, Z
    2358:	e0 91 a2 02 	lds	r30, 0x02A2	; 0x8002a2 <Serial+0x16>
    235c:	f0 91 a3 02 	lds	r31, 0x02A3	; 0x8002a3 <Serial+0x17>
    2360:	82 fd       	sbrc	r24, 2
    2362:	12 c0       	rjmp	.+36     	; 0x2388 <__vector_18+0x4e>
    2364:	90 81       	ld	r25, Z
    2366:	80 91 a5 02 	lds	r24, 0x02A5	; 0x8002a5 <Serial+0x19>
    236a:	8f 5f       	subi	r24, 0xFF	; 255
    236c:	8f 73       	andi	r24, 0x3F	; 63
    236e:	20 91 a6 02 	lds	r18, 0x02A6	; 0x8002a6 <Serial+0x1a>
    2372:	82 17       	cp	r24, r18
    2374:	51 f0       	breq	.+20     	; 0x238a <__vector_18+0x50>
    2376:	e0 91 a5 02 	lds	r30, 0x02A5	; 0x8002a5 <Serial+0x19>
    237a:	f0 e0       	ldi	r31, 0x00	; 0
    237c:	e4 57       	subi	r30, 0x74	; 116
    237e:	fd 4f       	sbci	r31, 0xFD	; 253
    2380:	95 8f       	std	Z+29, r25	; 0x1d
    2382:	80 93 a5 02 	sts	0x02A5, r24	; 0x8002a5 <Serial+0x19>
    2386:	01 c0       	rjmp	.+2      	; 0x238a <__vector_18+0x50>
    2388:	80 81       	ld	r24, Z
    238a:	ff 91       	pop	r31
    238c:	ef 91       	pop	r30
    238e:	9f 91       	pop	r25
    2390:	8f 91       	pop	r24
    2392:	2f 91       	pop	r18
    2394:	0f 90       	pop	r0
    2396:	0f be       	out	0x3f, r0	; 63
    2398:	0f 90       	pop	r0
    239a:	1f 90       	pop	r1
    239c:	18 95       	reti

0000239e <__vector_19>:
    239e:	1f 92       	push	r1
    23a0:	0f 92       	push	r0
    23a2:	0f b6       	in	r0, 0x3f	; 63
    23a4:	0f 92       	push	r0
    23a6:	11 24       	eor	r1, r1
    23a8:	2f 93       	push	r18
    23aa:	3f 93       	push	r19
    23ac:	4f 93       	push	r20
    23ae:	5f 93       	push	r21
    23b0:	6f 93       	push	r22
    23b2:	7f 93       	push	r23
    23b4:	8f 93       	push	r24
    23b6:	9f 93       	push	r25
    23b8:	af 93       	push	r26
    23ba:	bf 93       	push	r27
    23bc:	ef 93       	push	r30
    23be:	ff 93       	push	r31
    23c0:	8c e8       	ldi	r24, 0x8C	; 140
    23c2:	92 e0       	ldi	r25, 0x02	; 2
    23c4:	cf de       	rcall	.-610    	; 0x2164 <_ZN14HardwareSerial17_tx_udr_empty_irqEv>
    23c6:	ff 91       	pop	r31
    23c8:	ef 91       	pop	r30
    23ca:	bf 91       	pop	r27
    23cc:	af 91       	pop	r26
    23ce:	9f 91       	pop	r25
    23d0:	8f 91       	pop	r24
    23d2:	7f 91       	pop	r23
    23d4:	6f 91       	pop	r22
    23d6:	5f 91       	pop	r21
    23d8:	4f 91       	pop	r20
    23da:	3f 91       	pop	r19
    23dc:	2f 91       	pop	r18
    23de:	0f 90       	pop	r0
    23e0:	0f be       	out	0x3f, r0	; 63
    23e2:	0f 90       	pop	r0
    23e4:	1f 90       	pop	r1
    23e6:	18 95       	reti

000023e8 <_Z17Serial0_availablev>:
    23e8:	8c e8       	ldi	r24, 0x8C	; 140
    23ea:	92 e0       	ldi	r25, 0x02	; 2
    23ec:	80 de       	rcall	.-768    	; 0x20ee <_ZN14HardwareSerial9availableEv>
    23ee:	21 e0       	ldi	r18, 0x01	; 1
    23f0:	89 2b       	or	r24, r25
    23f2:	09 f4       	brne	.+2      	; 0x23f6 <_Z17Serial0_availablev+0xe>
    23f4:	20 e0       	ldi	r18, 0x00	; 0
    23f6:	82 2f       	mov	r24, r18
    23f8:	08 95       	ret

000023fa <_GLOBAL__sub_I___vector_18>:
    23fa:	ec e8       	ldi	r30, 0x8C	; 140
    23fc:	f2 e0       	ldi	r31, 0x02	; 2
    23fe:	13 82       	std	Z+3, r1	; 0x03
    2400:	12 82       	std	Z+2, r1	; 0x02
    2402:	88 ee       	ldi	r24, 0xE8	; 232
    2404:	93 e0       	ldi	r25, 0x03	; 3
    2406:	a0 e0       	ldi	r26, 0x00	; 0
    2408:	b0 e0       	ldi	r27, 0x00	; 0
    240a:	84 83       	std	Z+4, r24	; 0x04
    240c:	95 83       	std	Z+5, r25	; 0x05
    240e:	a6 83       	std	Z+6, r26	; 0x06
    2410:	b7 83       	std	Z+7, r27	; 0x07
    2412:	87 e0       	ldi	r24, 0x07	; 7
    2414:	92 e0       	ldi	r25, 0x02	; 2
    2416:	91 83       	std	Z+1, r25	; 0x01
    2418:	80 83       	st	Z, r24
    241a:	85 ec       	ldi	r24, 0xC5	; 197
    241c:	90 e0       	ldi	r25, 0x00	; 0
    241e:	95 87       	std	Z+13, r25	; 0x0d
    2420:	84 87       	std	Z+12, r24	; 0x0c
    2422:	84 ec       	ldi	r24, 0xC4	; 196
    2424:	90 e0       	ldi	r25, 0x00	; 0
    2426:	97 87       	std	Z+15, r25	; 0x0f
    2428:	86 87       	std	Z+14, r24	; 0x0e
    242a:	80 ec       	ldi	r24, 0xC0	; 192
    242c:	90 e0       	ldi	r25, 0x00	; 0
    242e:	91 8b       	std	Z+17, r25	; 0x11
    2430:	80 8b       	std	Z+16, r24	; 0x10
    2432:	81 ec       	ldi	r24, 0xC1	; 193
    2434:	90 e0       	ldi	r25, 0x00	; 0
    2436:	93 8b       	std	Z+19, r25	; 0x13
    2438:	82 8b       	std	Z+18, r24	; 0x12
    243a:	82 ec       	ldi	r24, 0xC2	; 194
    243c:	90 e0       	ldi	r25, 0x00	; 0
    243e:	95 8b       	std	Z+21, r25	; 0x15
    2440:	84 8b       	std	Z+20, r24	; 0x14
    2442:	86 ec       	ldi	r24, 0xC6	; 198
    2444:	90 e0       	ldi	r25, 0x00	; 0
    2446:	97 8b       	std	Z+23, r25	; 0x17
    2448:	86 8b       	std	Z+22, r24	; 0x16
    244a:	11 8e       	std	Z+25, r1	; 0x19
    244c:	12 8e       	std	Z+26, r1	; 0x1a
    244e:	13 8e       	std	Z+27, r1	; 0x1b
    2450:	14 8e       	std	Z+28, r1	; 0x1c
    2452:	08 95       	ret

00002454 <_ZNK9IPAddress7printToER5Print>:
    2454:	8f 92       	push	r8
    2456:	9f 92       	push	r9
    2458:	af 92       	push	r10
    245a:	bf 92       	push	r11
    245c:	cf 92       	push	r12
    245e:	df 92       	push	r13
    2460:	ef 92       	push	r14
    2462:	ff 92       	push	r15
    2464:	0f 93       	push	r16
    2466:	1f 93       	push	r17
    2468:	cf 93       	push	r28
    246a:	df 93       	push	r29
    246c:	7c 01       	movw	r14, r24
    246e:	8b 01       	movw	r16, r22
    2470:	6c 01       	movw	r12, r24
    2472:	82 e0       	ldi	r24, 0x02	; 2
    2474:	c8 0e       	add	r12, r24
    2476:	d1 1c       	adc	r13, r1
    2478:	47 01       	movw	r8, r14
    247a:	e5 e0       	ldi	r30, 0x05	; 5
    247c:	8e 0e       	add	r8, r30
    247e:	91 1c       	adc	r9, r1
    2480:	c0 e0       	ldi	r28, 0x00	; 0
    2482:	d0 e0       	ldi	r29, 0x00	; 0
    2484:	f6 01       	movw	r30, r12
    2486:	61 91       	ld	r22, Z+
    2488:	6f 01       	movw	r12, r30
    248a:	4a e0       	ldi	r20, 0x0A	; 10
    248c:	50 e0       	ldi	r21, 0x00	; 0
    248e:	c8 01       	movw	r24, r16
    2490:	27 d1       	rcall	.+590    	; 0x26e0 <_ZN5Print5printEhi>
    2492:	5c 01       	movw	r10, r24
    2494:	6e e2       	ldi	r22, 0x2E	; 46
    2496:	c8 01       	movw	r24, r16
    2498:	a6 d0       	rcall	.+332    	; 0x25e6 <_ZN5Print5printEc>
    249a:	8a 0d       	add	r24, r10
    249c:	9b 1d       	adc	r25, r11
    249e:	c8 0f       	add	r28, r24
    24a0:	d9 1f       	adc	r29, r25
    24a2:	c8 14       	cp	r12, r8
    24a4:	d9 04       	cpc	r13, r9
    24a6:	71 f7       	brne	.-36     	; 0x2484 <_ZNK9IPAddress7printToER5Print+0x30>
    24a8:	4a e0       	ldi	r20, 0x0A	; 10
    24aa:	50 e0       	ldi	r21, 0x00	; 0
    24ac:	f7 01       	movw	r30, r14
    24ae:	65 81       	ldd	r22, Z+5	; 0x05
    24b0:	c8 01       	movw	r24, r16
    24b2:	16 d1       	rcall	.+556    	; 0x26e0 <_ZN5Print5printEhi>
    24b4:	8c 0f       	add	r24, r28
    24b6:	9d 1f       	adc	r25, r29
    24b8:	df 91       	pop	r29
    24ba:	cf 91       	pop	r28
    24bc:	1f 91       	pop	r17
    24be:	0f 91       	pop	r16
    24c0:	ff 90       	pop	r15
    24c2:	ef 90       	pop	r14
    24c4:	df 90       	pop	r13
    24c6:	cf 90       	pop	r12
    24c8:	bf 90       	pop	r11
    24ca:	af 90       	pop	r10
    24cc:	9f 90       	pop	r9
    24ce:	8f 90       	pop	r8
    24d0:	08 95       	ret

000024d2 <_ZN9IPAddressC1Ev>:
    24d2:	27 e1       	ldi	r18, 0x17	; 23
    24d4:	32 e0       	ldi	r19, 0x02	; 2
    24d6:	fc 01       	movw	r30, r24
    24d8:	31 83       	std	Z+1, r19	; 0x01
    24da:	20 83       	st	Z, r18
    24dc:	12 82       	std	Z+2, r1	; 0x02
    24de:	13 82       	std	Z+3, r1	; 0x03
    24e0:	14 82       	std	Z+4, r1	; 0x04
    24e2:	15 82       	std	Z+5, r1	; 0x05
    24e4:	08 95       	ret

000024e6 <_ZN9IPAddressC1Ehhhh>:
    24e6:	0f 93       	push	r16
    24e8:	fc 01       	movw	r30, r24
    24ea:	87 e1       	ldi	r24, 0x17	; 23
    24ec:	92 e0       	ldi	r25, 0x02	; 2
    24ee:	91 83       	std	Z+1, r25	; 0x01
    24f0:	80 83       	st	Z, r24
    24f2:	62 83       	std	Z+2, r22	; 0x02
    24f4:	43 83       	std	Z+3, r20	; 0x03
    24f6:	24 83       	std	Z+4, r18	; 0x04
    24f8:	05 83       	std	Z+5, r16	; 0x05
    24fa:	0f 91       	pop	r16
    24fc:	08 95       	ret

000024fe <_ZN9IPAddressC1EPKh>:
    24fe:	27 e1       	ldi	r18, 0x17	; 23
    2500:	32 e0       	ldi	r19, 0x02	; 2
    2502:	fc 01       	movw	r30, r24
    2504:	31 83       	std	Z+1, r19	; 0x01
    2506:	20 83       	st	Z, r18
    2508:	fb 01       	movw	r30, r22
    250a:	40 81       	ld	r20, Z
    250c:	51 81       	ldd	r21, Z+1	; 0x01
    250e:	62 81       	ldd	r22, Z+2	; 0x02
    2510:	73 81       	ldd	r23, Z+3	; 0x03
    2512:	fc 01       	movw	r30, r24
    2514:	42 83       	std	Z+2, r20	; 0x02
    2516:	53 83       	std	Z+3, r21	; 0x03
    2518:	64 83       	std	Z+4, r22	; 0x04
    251a:	75 83       	std	Z+5, r23	; 0x05
    251c:	08 95       	ret

0000251e <_ZN9IPAddressaSEPKh>:
    251e:	fb 01       	movw	r30, r22
    2520:	40 81       	ld	r20, Z
    2522:	51 81       	ldd	r21, Z+1	; 0x01
    2524:	62 81       	ldd	r22, Z+2	; 0x02
    2526:	73 81       	ldd	r23, Z+3	; 0x03
    2528:	fc 01       	movw	r30, r24
    252a:	42 83       	std	Z+2, r20	; 0x02
    252c:	53 83       	std	Z+3, r21	; 0x03
    252e:	64 83       	std	Z+4, r22	; 0x04
    2530:	75 83       	std	Z+5, r23	; 0x05
    2532:	08 95       	ret

00002534 <_GLOBAL__sub_I__ZN9IPAddressC2Ev>:
    2534:	e9 e2       	ldi	r30, 0x29	; 41
    2536:	f3 e0       	ldi	r31, 0x03	; 3
    2538:	87 e1       	ldi	r24, 0x17	; 23
    253a:	92 e0       	ldi	r25, 0x02	; 2
    253c:	91 83       	std	Z+1, r25	; 0x01
    253e:	80 83       	st	Z, r24
    2540:	12 82       	std	Z+2, r1	; 0x02
    2542:	13 82       	std	Z+3, r1	; 0x03
    2544:	14 82       	std	Z+4, r1	; 0x04
    2546:	15 82       	std	Z+5, r1	; 0x05
    2548:	08 95       	ret

0000254a <_ZN5Print5writeEPKhj>:
    254a:	cf 92       	push	r12
    254c:	df 92       	push	r13
    254e:	ef 92       	push	r14
    2550:	ff 92       	push	r15
    2552:	0f 93       	push	r16
    2554:	1f 93       	push	r17
    2556:	cf 93       	push	r28
    2558:	df 93       	push	r29
    255a:	6c 01       	movw	r12, r24
    255c:	7a 01       	movw	r14, r20
    255e:	8b 01       	movw	r16, r22
    2560:	c0 e0       	ldi	r28, 0x00	; 0
    2562:	d0 e0       	ldi	r29, 0x00	; 0
    2564:	ce 15       	cp	r28, r14
    2566:	df 05       	cpc	r29, r15
    2568:	89 f0       	breq	.+34     	; 0x258c <_ZN5Print5writeEPKhj+0x42>
    256a:	d8 01       	movw	r26, r16
    256c:	6d 91       	ld	r22, X+
    256e:	8d 01       	movw	r16, r26
    2570:	d6 01       	movw	r26, r12
    2572:	ed 91       	ld	r30, X+
    2574:	fc 91       	ld	r31, X
    2576:	01 90       	ld	r0, Z+
    2578:	f0 81       	ld	r31, Z
    257a:	e0 2d       	mov	r30, r0
    257c:	c6 01       	movw	r24, r12
    257e:	09 95       	icall
    2580:	89 2b       	or	r24, r25
    2582:	11 f4       	brne	.+4      	; 0x2588 <_ZN5Print5writeEPKhj+0x3e>
    2584:	7e 01       	movw	r14, r28
    2586:	02 c0       	rjmp	.+4      	; 0x258c <_ZN5Print5writeEPKhj+0x42>
    2588:	21 96       	adiw	r28, 0x01	; 1
    258a:	ec cf       	rjmp	.-40     	; 0x2564 <_ZN5Print5writeEPKhj+0x1a>
    258c:	c7 01       	movw	r24, r14
    258e:	df 91       	pop	r29
    2590:	cf 91       	pop	r28
    2592:	1f 91       	pop	r17
    2594:	0f 91       	pop	r16
    2596:	ff 90       	pop	r15
    2598:	ef 90       	pop	r14
    259a:	df 90       	pop	r13
    259c:	cf 90       	pop	r12
    259e:	08 95       	ret

000025a0 <_ZN5Print5writeEPKc>:
    25a0:	61 15       	cp	r22, r1
    25a2:	71 05       	cpc	r23, r1
    25a4:	79 f0       	breq	.+30     	; 0x25c4 <_ZN5Print5writeEPKc+0x24>
    25a6:	fb 01       	movw	r30, r22
    25a8:	01 90       	ld	r0, Z+
    25aa:	00 20       	and	r0, r0
    25ac:	e9 f7       	brne	.-6      	; 0x25a8 <_ZN5Print5writeEPKc+0x8>
    25ae:	31 97       	sbiw	r30, 0x01	; 1
    25b0:	af 01       	movw	r20, r30
    25b2:	46 1b       	sub	r20, r22
    25b4:	57 0b       	sbc	r21, r23
    25b6:	dc 01       	movw	r26, r24
    25b8:	ed 91       	ld	r30, X+
    25ba:	fc 91       	ld	r31, X
    25bc:	02 80       	ldd	r0, Z+2	; 0x02
    25be:	f3 81       	ldd	r31, Z+3	; 0x03
    25c0:	e0 2d       	mov	r30, r0
    25c2:	09 94       	ijmp
    25c4:	80 e0       	ldi	r24, 0x00	; 0
    25c6:	90 e0       	ldi	r25, 0x00	; 0
    25c8:	08 95       	ret

000025ca <_ZN5Print5printERK6String>:
    25ca:	dc 01       	movw	r26, r24
    25cc:	ed 91       	ld	r30, X+
    25ce:	fc 91       	ld	r31, X
    25d0:	db 01       	movw	r26, r22
    25d2:	14 96       	adiw	r26, 0x04	; 4
    25d4:	4d 91       	ld	r20, X+
    25d6:	5c 91       	ld	r21, X
    25d8:	15 97       	sbiw	r26, 0x05	; 5
    25da:	6d 91       	ld	r22, X+
    25dc:	7c 91       	ld	r23, X
    25de:	02 80       	ldd	r0, Z+2	; 0x02
    25e0:	f3 81       	ldd	r31, Z+3	; 0x03
    25e2:	e0 2d       	mov	r30, r0
    25e4:	09 94       	ijmp

000025e6 <_ZN5Print5printEc>:
    25e6:	dc 01       	movw	r26, r24
    25e8:	ed 91       	ld	r30, X+
    25ea:	fc 91       	ld	r31, X
    25ec:	01 90       	ld	r0, Z+
    25ee:	f0 81       	ld	r31, Z
    25f0:	e0 2d       	mov	r30, r0
    25f2:	09 94       	ijmp

000025f4 <_ZN5Print7printlnEv>:
    25f4:	69 e1       	ldi	r22, 0x19	; 25
    25f6:	72 e0       	ldi	r23, 0x02	; 2
    25f8:	d3 cf       	rjmp	.-90     	; 0x25a0 <_ZN5Print5writeEPKc>

000025fa <_ZN5Print7printlnERK6String>:
    25fa:	0f 93       	push	r16
    25fc:	1f 93       	push	r17
    25fe:	cf 93       	push	r28
    2600:	df 93       	push	r29
    2602:	ec 01       	movw	r28, r24
    2604:	e2 df       	rcall	.-60     	; 0x25ca <_ZN5Print5printERK6String>
    2606:	8c 01       	movw	r16, r24
    2608:	ce 01       	movw	r24, r28
    260a:	f4 df       	rcall	.-24     	; 0x25f4 <_ZN5Print7printlnEv>
    260c:	80 0f       	add	r24, r16
    260e:	91 1f       	adc	r25, r17
    2610:	df 91       	pop	r29
    2612:	cf 91       	pop	r28
    2614:	1f 91       	pop	r17
    2616:	0f 91       	pop	r16
    2618:	08 95       	ret

0000261a <_ZN5Print7printlnEPKc>:
    261a:	0f 93       	push	r16
    261c:	1f 93       	push	r17
    261e:	cf 93       	push	r28
    2620:	df 93       	push	r29
    2622:	ec 01       	movw	r28, r24
    2624:	bd df       	rcall	.-134    	; 0x25a0 <_ZN5Print5writeEPKc>
    2626:	8c 01       	movw	r16, r24
    2628:	ce 01       	movw	r24, r28
    262a:	e4 df       	rcall	.-56     	; 0x25f4 <_ZN5Print7printlnEv>
    262c:	80 0f       	add	r24, r16
    262e:	91 1f       	adc	r25, r17
    2630:	df 91       	pop	r29
    2632:	cf 91       	pop	r28
    2634:	1f 91       	pop	r17
    2636:	0f 91       	pop	r16
    2638:	08 95       	ret

0000263a <_ZN5Print11printNumberEmh>:
    263a:	4f 92       	push	r4
    263c:	5f 92       	push	r5
    263e:	6f 92       	push	r6
    2640:	7f 92       	push	r7
    2642:	ef 92       	push	r14
    2644:	ff 92       	push	r15
    2646:	0f 93       	push	r16
    2648:	1f 93       	push	r17
    264a:	cf 93       	push	r28
    264c:	df 93       	push	r29
    264e:	cd b7       	in	r28, 0x3d	; 61
    2650:	de b7       	in	r29, 0x3e	; 62
    2652:	a1 97       	sbiw	r28, 0x21	; 33
    2654:	0f b6       	in	r0, 0x3f	; 63
    2656:	f8 94       	cli
    2658:	de bf       	out	0x3e, r29	; 62
    265a:	0f be       	out	0x3f, r0	; 63
    265c:	cd bf       	out	0x3d, r28	; 61
    265e:	7c 01       	movw	r14, r24
    2660:	fa 01       	movw	r30, r20
    2662:	cb 01       	movw	r24, r22
    2664:	19 a2       	std	Y+33, r1	; 0x21
    2666:	22 30       	cpi	r18, 0x02	; 2
    2668:	08 f4       	brcc	.+2      	; 0x266c <_ZN5Print11printNumberEmh+0x32>
    266a:	2a e0       	ldi	r18, 0x0A	; 10
    266c:	8e 01       	movw	r16, r28
    266e:	0f 5d       	subi	r16, 0xDF	; 223
    2670:	1f 4f       	sbci	r17, 0xFF	; 255
    2672:	42 2e       	mov	r4, r18
    2674:	51 2c       	mov	r5, r1
    2676:	61 2c       	mov	r6, r1
    2678:	71 2c       	mov	r7, r1
    267a:	bf 01       	movw	r22, r30
    267c:	a3 01       	movw	r20, r6
    267e:	92 01       	movw	r18, r4
    2680:	79 d3       	rcall	.+1778   	; 0x2d74 <__udivmodsi4>
    2682:	f9 01       	movw	r30, r18
    2684:	ca 01       	movw	r24, r20
    2686:	01 50       	subi	r16, 0x01	; 1
    2688:	11 09       	sbc	r17, r1
    268a:	6a 30       	cpi	r22, 0x0A	; 10
    268c:	14 f4       	brge	.+4      	; 0x2692 <_ZN5Print11printNumberEmh+0x58>
    268e:	60 5d       	subi	r22, 0xD0	; 208
    2690:	01 c0       	rjmp	.+2      	; 0x2694 <_ZN5Print11printNumberEmh+0x5a>
    2692:	69 5c       	subi	r22, 0xC9	; 201
    2694:	d8 01       	movw	r26, r16
    2696:	6c 93       	st	X, r22
    2698:	23 2b       	or	r18, r19
    269a:	24 2b       	or	r18, r20
    269c:	25 2b       	or	r18, r21
    269e:	69 f7       	brne	.-38     	; 0x267a <_ZN5Print11printNumberEmh+0x40>
    26a0:	b8 01       	movw	r22, r16
    26a2:	c7 01       	movw	r24, r14
    26a4:	7d df       	rcall	.-262    	; 0x25a0 <_ZN5Print5writeEPKc>
    26a6:	a1 96       	adiw	r28, 0x21	; 33
    26a8:	0f b6       	in	r0, 0x3f	; 63
    26aa:	f8 94       	cli
    26ac:	de bf       	out	0x3e, r29	; 62
    26ae:	0f be       	out	0x3f, r0	; 63
    26b0:	cd bf       	out	0x3d, r28	; 61
    26b2:	df 91       	pop	r29
    26b4:	cf 91       	pop	r28
    26b6:	1f 91       	pop	r17
    26b8:	0f 91       	pop	r16
    26ba:	ff 90       	pop	r15
    26bc:	ef 90       	pop	r14
    26be:	7f 90       	pop	r7
    26c0:	6f 90       	pop	r6
    26c2:	5f 90       	pop	r5
    26c4:	4f 90       	pop	r4
    26c6:	08 95       	ret

000026c8 <_ZN5Print5printEmi>:
    26c8:	21 15       	cp	r18, r1
    26ca:	31 05       	cpc	r19, r1
    26cc:	41 f4       	brne	.+16     	; 0x26de <_ZN5Print5printEmi+0x16>
    26ce:	dc 01       	movw	r26, r24
    26d0:	ed 91       	ld	r30, X+
    26d2:	fc 91       	ld	r31, X
    26d4:	01 90       	ld	r0, Z+
    26d6:	f0 81       	ld	r31, Z
    26d8:	e0 2d       	mov	r30, r0
    26da:	64 2f       	mov	r22, r20
    26dc:	09 94       	ijmp
    26de:	ad cf       	rjmp	.-166    	; 0x263a <_ZN5Print11printNumberEmh>

000026e0 <_ZN5Print5printEhi>:
    26e0:	9a 01       	movw	r18, r20
    26e2:	46 2f       	mov	r20, r22
    26e4:	50 e0       	ldi	r21, 0x00	; 0
    26e6:	60 e0       	ldi	r22, 0x00	; 0
    26e8:	70 e0       	ldi	r23, 0x00	; 0
    26ea:	ee cf       	rjmp	.-36     	; 0x26c8 <_ZN5Print5printEmi>

000026ec <_Z8makeWordhh>:
    26ec:	70 e0       	ldi	r23, 0x00	; 0
    26ee:	9b 01       	movw	r18, r22
    26f0:	38 2b       	or	r19, r24
    26f2:	c9 01       	movw	r24, r18
    26f4:	08 95       	ret

000026f6 <_ZN6StringD1Ev>:
    26f6:	fc 01       	movw	r30, r24
    26f8:	80 81       	ld	r24, Z
    26fa:	91 81       	ldd	r25, Z+1	; 0x01
    26fc:	f8 c3       	rjmp	.+2032   	; 0x2eee <free>

000026fe <_ZN6String10invalidateEv>:
    26fe:	cf 93       	push	r28
    2700:	df 93       	push	r29
    2702:	ec 01       	movw	r28, r24
    2704:	88 81       	ld	r24, Y
    2706:	99 81       	ldd	r25, Y+1	; 0x01
    2708:	00 97       	sbiw	r24, 0x00	; 0
    270a:	09 f0       	breq	.+2      	; 0x270e <_ZN6String10invalidateEv+0x10>
    270c:	f0 d3       	rcall	.+2016   	; 0x2eee <free>
    270e:	19 82       	std	Y+1, r1	; 0x01
    2710:	18 82       	st	Y, r1
    2712:	1d 82       	std	Y+5, r1	; 0x05
    2714:	1c 82       	std	Y+4, r1	; 0x04
    2716:	1b 82       	std	Y+3, r1	; 0x03
    2718:	1a 82       	std	Y+2, r1	; 0x02
    271a:	df 91       	pop	r29
    271c:	cf 91       	pop	r28
    271e:	08 95       	ret

00002720 <_ZN6String12changeBufferEj>:
    2720:	0f 93       	push	r16
    2722:	1f 93       	push	r17
    2724:	cf 93       	push	r28
    2726:	df 93       	push	r29
    2728:	ec 01       	movw	r28, r24
    272a:	8b 01       	movw	r16, r22
    272c:	6f 5f       	subi	r22, 0xFF	; 255
    272e:	7f 4f       	sbci	r23, 0xFF	; 255
    2730:	88 81       	ld	r24, Y
    2732:	99 81       	ldd	r25, Y+1	; 0x01
    2734:	74 d4       	rcall	.+2280   	; 0x301e <realloc>
    2736:	00 97       	sbiw	r24, 0x00	; 0
    2738:	31 f0       	breq	.+12     	; 0x2746 <_ZN6String12changeBufferEj+0x26>
    273a:	99 83       	std	Y+1, r25	; 0x01
    273c:	88 83       	st	Y, r24
    273e:	1b 83       	std	Y+3, r17	; 0x03
    2740:	0a 83       	std	Y+2, r16	; 0x02
    2742:	81 e0       	ldi	r24, 0x01	; 1
    2744:	01 c0       	rjmp	.+2      	; 0x2748 <_ZN6String12changeBufferEj+0x28>
    2746:	80 e0       	ldi	r24, 0x00	; 0
    2748:	df 91       	pop	r29
    274a:	cf 91       	pop	r28
    274c:	1f 91       	pop	r17
    274e:	0f 91       	pop	r16
    2750:	08 95       	ret

00002752 <_ZN6String7reserveEj>:
    2752:	cf 93       	push	r28
    2754:	df 93       	push	r29
    2756:	ec 01       	movw	r28, r24
    2758:	88 81       	ld	r24, Y
    275a:	99 81       	ldd	r25, Y+1	; 0x01
    275c:	89 2b       	or	r24, r25
    275e:	29 f0       	breq	.+10     	; 0x276a <_ZN6String7reserveEj+0x18>
    2760:	8a 81       	ldd	r24, Y+2	; 0x02
    2762:	9b 81       	ldd	r25, Y+3	; 0x03
    2764:	86 17       	cp	r24, r22
    2766:	97 07       	cpc	r25, r23
    2768:	58 f4       	brcc	.+22     	; 0x2780 <_ZN6String7reserveEj+0x2e>
    276a:	ce 01       	movw	r24, r28
    276c:	d9 df       	rcall	.-78     	; 0x2720 <_ZN6String12changeBufferEj>
    276e:	88 23       	and	r24, r24
    2770:	41 f0       	breq	.+16     	; 0x2782 <_ZN6String7reserveEj+0x30>
    2772:	8c 81       	ldd	r24, Y+4	; 0x04
    2774:	9d 81       	ldd	r25, Y+5	; 0x05
    2776:	89 2b       	or	r24, r25
    2778:	19 f4       	brne	.+6      	; 0x2780 <_ZN6String7reserveEj+0x2e>
    277a:	e8 81       	ld	r30, Y
    277c:	f9 81       	ldd	r31, Y+1	; 0x01
    277e:	10 82       	st	Z, r1
    2780:	81 e0       	ldi	r24, 0x01	; 1
    2782:	df 91       	pop	r29
    2784:	cf 91       	pop	r28
    2786:	08 95       	ret

00002788 <_ZN6String4copyEPKcj>:
    2788:	ef 92       	push	r14
    278a:	ff 92       	push	r15
    278c:	0f 93       	push	r16
    278e:	1f 93       	push	r17
    2790:	cf 93       	push	r28
    2792:	df 93       	push	r29
    2794:	ec 01       	movw	r28, r24
    2796:	7b 01       	movw	r14, r22
    2798:	8a 01       	movw	r16, r20
    279a:	ba 01       	movw	r22, r20
    279c:	da df       	rcall	.-76     	; 0x2752 <_ZN6String7reserveEj>
    279e:	81 11       	cpse	r24, r1
    27a0:	03 c0       	rjmp	.+6      	; 0x27a8 <_ZN6String4copyEPKcj+0x20>
    27a2:	ce 01       	movw	r24, r28
    27a4:	ac df       	rcall	.-168    	; 0x26fe <_ZN6String10invalidateEv>
    27a6:	06 c0       	rjmp	.+12     	; 0x27b4 <_ZN6String4copyEPKcj+0x2c>
    27a8:	1d 83       	std	Y+5, r17	; 0x05
    27aa:	0c 83       	std	Y+4, r16	; 0x04
    27ac:	b7 01       	movw	r22, r14
    27ae:	88 81       	ld	r24, Y
    27b0:	99 81       	ldd	r25, Y+1	; 0x01
    27b2:	01 d5       	rcall	.+2562   	; 0x31b6 <strcpy>
    27b4:	ce 01       	movw	r24, r28
    27b6:	df 91       	pop	r29
    27b8:	cf 91       	pop	r28
    27ba:	1f 91       	pop	r17
    27bc:	0f 91       	pop	r16
    27be:	ff 90       	pop	r15
    27c0:	ef 90       	pop	r14
    27c2:	08 95       	ret

000027c4 <_ZN6StringC1EPKc>:
    27c4:	fc 01       	movw	r30, r24
    27c6:	11 82       	std	Z+1, r1	; 0x01
    27c8:	10 82       	st	Z, r1
    27ca:	13 82       	std	Z+3, r1	; 0x03
    27cc:	12 82       	std	Z+2, r1	; 0x02
    27ce:	15 82       	std	Z+5, r1	; 0x05
    27d0:	14 82       	std	Z+4, r1	; 0x04
    27d2:	61 15       	cp	r22, r1
    27d4:	71 05       	cpc	r23, r1
    27d6:	49 f0       	breq	.+18     	; 0x27ea <_ZN6StringC1EPKc+0x26>
    27d8:	fb 01       	movw	r30, r22
    27da:	01 90       	ld	r0, Z+
    27dc:	00 20       	and	r0, r0
    27de:	e9 f7       	brne	.-6      	; 0x27da <_ZN6StringC1EPKc+0x16>
    27e0:	31 97       	sbiw	r30, 0x01	; 1
    27e2:	af 01       	movw	r20, r30
    27e4:	46 1b       	sub	r20, r22
    27e6:	57 0b       	sbc	r21, r23
    27e8:	cf cf       	rjmp	.-98     	; 0x2788 <_ZN6String4copyEPKcj>
    27ea:	08 95       	ret

000027ec <_ZN6StringaSERKS_>:
    27ec:	cf 93       	push	r28
    27ee:	df 93       	push	r29
    27f0:	ec 01       	movw	r28, r24
    27f2:	fb 01       	movw	r30, r22
    27f4:	86 17       	cp	r24, r22
    27f6:	97 07       	cpc	r25, r23
    27f8:	51 f0       	breq	.+20     	; 0x280e <_ZN6StringaSERKS_+0x22>
    27fa:	60 81       	ld	r22, Z
    27fc:	71 81       	ldd	r23, Z+1	; 0x01
    27fe:	61 15       	cp	r22, r1
    2800:	71 05       	cpc	r23, r1
    2802:	21 f0       	breq	.+8      	; 0x280c <_ZN6StringaSERKS_+0x20>
    2804:	44 81       	ldd	r20, Z+4	; 0x04
    2806:	55 81       	ldd	r21, Z+5	; 0x05
    2808:	bf df       	rcall	.-130    	; 0x2788 <_ZN6String4copyEPKcj>
    280a:	01 c0       	rjmp	.+2      	; 0x280e <_ZN6StringaSERKS_+0x22>
    280c:	78 df       	rcall	.-272    	; 0x26fe <_ZN6String10invalidateEv>
    280e:	ce 01       	movw	r24, r28
    2810:	df 91       	pop	r29
    2812:	cf 91       	pop	r28
    2814:	08 95       	ret

00002816 <_ZN6StringC1ERKS_>:
    2816:	fc 01       	movw	r30, r24
    2818:	11 82       	std	Z+1, r1	; 0x01
    281a:	10 82       	st	Z, r1
    281c:	13 82       	std	Z+3, r1	; 0x03
    281e:	12 82       	std	Z+2, r1	; 0x02
    2820:	15 82       	std	Z+5, r1	; 0x05
    2822:	14 82       	std	Z+4, r1	; 0x04
    2824:	e3 cf       	rjmp	.-58     	; 0x27ec <_ZN6StringaSERKS_>

00002826 <_ZN6String6concatEPKcj>:
    2826:	ef 92       	push	r14
    2828:	ff 92       	push	r15
    282a:	0f 93       	push	r16
    282c:	1f 93       	push	r17
    282e:	cf 93       	push	r28
    2830:	df 93       	push	r29
    2832:	fc 01       	movw	r30, r24
    2834:	24 81       	ldd	r18, Z+4	; 0x04
    2836:	35 81       	ldd	r19, Z+5	; 0x05
    2838:	61 15       	cp	r22, r1
    283a:	71 05       	cpc	r23, r1
    283c:	11 f4       	brne	.+4      	; 0x2842 <_ZN6String6concatEPKcj+0x1c>
    283e:	80 e0       	ldi	r24, 0x00	; 0
    2840:	17 c0       	rjmp	.+46     	; 0x2870 <_ZN6String6concatEPKcj+0x4a>
    2842:	41 15       	cp	r20, r1
    2844:	51 05       	cpc	r21, r1
    2846:	99 f0       	breq	.+38     	; 0x286e <_ZN6String6concatEPKcj+0x48>
    2848:	7b 01       	movw	r14, r22
    284a:	ec 01       	movw	r28, r24
    284c:	8a 01       	movw	r16, r20
    284e:	02 0f       	add	r16, r18
    2850:	13 1f       	adc	r17, r19
    2852:	b8 01       	movw	r22, r16
    2854:	7e df       	rcall	.-260    	; 0x2752 <_ZN6String7reserveEj>
    2856:	88 23       	and	r24, r24
    2858:	91 f3       	breq	.-28     	; 0x283e <_ZN6String6concatEPKcj+0x18>
    285a:	28 81       	ld	r18, Y
    285c:	39 81       	ldd	r19, Y+1	; 0x01
    285e:	8c 81       	ldd	r24, Y+4	; 0x04
    2860:	9d 81       	ldd	r25, Y+5	; 0x05
    2862:	b7 01       	movw	r22, r14
    2864:	82 0f       	add	r24, r18
    2866:	93 1f       	adc	r25, r19
    2868:	a6 d4       	rcall	.+2380   	; 0x31b6 <strcpy>
    286a:	1d 83       	std	Y+5, r17	; 0x05
    286c:	0c 83       	std	Y+4, r16	; 0x04
    286e:	81 e0       	ldi	r24, 0x01	; 1
    2870:	df 91       	pop	r29
    2872:	cf 91       	pop	r28
    2874:	1f 91       	pop	r17
    2876:	0f 91       	pop	r16
    2878:	ff 90       	pop	r15
    287a:	ef 90       	pop	r14
    287c:	08 95       	ret

0000287e <_ZplRK15StringSumHelperRK6String>:
    287e:	cf 93       	push	r28
    2880:	df 93       	push	r29
    2882:	ec 01       	movw	r28, r24
    2884:	fb 01       	movw	r30, r22
    2886:	44 81       	ldd	r20, Z+4	; 0x04
    2888:	55 81       	ldd	r21, Z+5	; 0x05
    288a:	60 81       	ld	r22, Z
    288c:	71 81       	ldd	r23, Z+1	; 0x01
    288e:	cb df       	rcall	.-106    	; 0x2826 <_ZN6String6concatEPKcj>
    2890:	81 11       	cpse	r24, r1
    2892:	02 c0       	rjmp	.+4      	; 0x2898 <_ZplRK15StringSumHelperRK6String+0x1a>
    2894:	ce 01       	movw	r24, r28
    2896:	33 df       	rcall	.-410    	; 0x26fe <_ZN6String10invalidateEv>
    2898:	ce 01       	movw	r24, r28
    289a:	df 91       	pop	r29
    289c:	cf 91       	pop	r28
    289e:	08 95       	ret

000028a0 <_ZplRK15StringSumHelperPKc>:
    28a0:	cf 93       	push	r28
    28a2:	df 93       	push	r29
    28a4:	ec 01       	movw	r28, r24
    28a6:	61 15       	cp	r22, r1
    28a8:	71 05       	cpc	r23, r1
    28aa:	59 f0       	breq	.+22     	; 0x28c2 <_ZplRK15StringSumHelperPKc+0x22>
    28ac:	fb 01       	movw	r30, r22
    28ae:	01 90       	ld	r0, Z+
    28b0:	00 20       	and	r0, r0
    28b2:	e9 f7       	brne	.-6      	; 0x28ae <_ZplRK15StringSumHelperPKc+0xe>
    28b4:	31 97       	sbiw	r30, 0x01	; 1
    28b6:	af 01       	movw	r20, r30
    28b8:	46 1b       	sub	r20, r22
    28ba:	57 0b       	sbc	r21, r23
    28bc:	b4 df       	rcall	.-152    	; 0x2826 <_ZN6String6concatEPKcj>
    28be:	81 11       	cpse	r24, r1
    28c0:	02 c0       	rjmp	.+4      	; 0x28c6 <_ZplRK15StringSumHelperPKc+0x26>
    28c2:	ce 01       	movw	r24, r28
    28c4:	1c df       	rcall	.-456    	; 0x26fe <_ZN6String10invalidateEv>
    28c6:	ce 01       	movw	r24, r28
    28c8:	df 91       	pop	r29
    28ca:	cf 91       	pop	r28
    28cc:	08 95       	ret

000028ce <_ZNK6String8getBytesEPhjj>:
    28ce:	0f 93       	push	r16
    28d0:	1f 93       	push	r17
    28d2:	cf 93       	push	r28
    28d4:	df 93       	push	r29
    28d6:	41 15       	cp	r20, r1
    28d8:	51 05       	cpc	r21, r1
    28da:	11 f1       	breq	.+68     	; 0x2920 <_ZNK6String8getBytesEPhjj+0x52>
    28dc:	61 15       	cp	r22, r1
    28de:	71 05       	cpc	r23, r1
    28e0:	f9 f0       	breq	.+62     	; 0x2920 <_ZNK6String8getBytesEPhjj+0x52>
    28e2:	dc 01       	movw	r26, r24
    28e4:	14 96       	adiw	r26, 0x04	; 4
    28e6:	ed 91       	ld	r30, X+
    28e8:	fc 91       	ld	r31, X
    28ea:	15 97       	sbiw	r26, 0x05	; 5
    28ec:	2e 17       	cp	r18, r30
    28ee:	3f 07       	cpc	r19, r31
    28f0:	18 f0       	brcs	.+6      	; 0x28f8 <_ZNK6String8getBytesEPhjj+0x2a>
    28f2:	fb 01       	movw	r30, r22
    28f4:	10 82       	st	Z, r1
    28f6:	14 c0       	rjmp	.+40     	; 0x2920 <_ZNK6String8getBytesEPhjj+0x52>
    28f8:	e2 1b       	sub	r30, r18
    28fa:	f3 0b       	sbc	r31, r19
    28fc:	ea 01       	movw	r28, r20
    28fe:	21 97       	sbiw	r28, 0x01	; 1
    2900:	ec 17       	cp	r30, r28
    2902:	fd 07       	cpc	r31, r29
    2904:	08 f4       	brcc	.+2      	; 0x2908 <_ZNK6String8getBytesEPhjj+0x3a>
    2906:	ef 01       	movw	r28, r30
    2908:	8b 01       	movw	r16, r22
    290a:	fc 01       	movw	r30, r24
    290c:	60 81       	ld	r22, Z
    290e:	71 81       	ldd	r23, Z+1	; 0x01
    2910:	62 0f       	add	r22, r18
    2912:	73 1f       	adc	r23, r19
    2914:	ae 01       	movw	r20, r28
    2916:	c8 01       	movw	r24, r16
    2918:	55 d4       	rcall	.+2218   	; 0x31c4 <strncpy>
    291a:	c0 0f       	add	r28, r16
    291c:	d1 1f       	adc	r29, r17
    291e:	18 82       	st	Y, r1
    2920:	df 91       	pop	r29
    2922:	cf 91       	pop	r28
    2924:	1f 91       	pop	r17
    2926:	0f 91       	pop	r16
    2928:	08 95       	ret

0000292a <yield>:
    292a:	08 95       	ret

0000292c <initVariant>:


	String time_boden = "BDN;" + irig_boden->ReadTimeFrame() + ";";
	String time_borlange = "BLG;" + irig_borlange->ReadTimeFrame() + ";";

	Serial.println("BDN: " + time_boden);
    292c:	08 95       	ret

0000292e <main>:

	char frame[25];
	time_boden.toCharArray(frame, 25);

	char frame2[25];
	time_borlange.toCharArray(frame2, 25);
    292e:	c0 d0       	rcall	.+384    	; 0x2ab0 <init>
    2930:	fd df       	rcall	.-6      	; 0x292c <initVariant>

	net->Send(frame);
    2932:	0e 94 95 00 	call	0x12a	; 0x12a <setup>
	net->Send(frame2);

}



    2936:	c5 ea       	ldi	r28, 0xA5	; 165
    2938:	d0 e1       	ldi	r29, 0x10	; 16

    293a:	0e 94 c5 00 	call	0x18a	; 0x18a <loop>




    293e:	20 97       	sbiw	r28, 0x00	; 0
    2940:	e1 f3       	breq	.-8      	; 0x293a <main+0xc>
    2942:	03 dc       	rcall	.-2042   	; 0x214a <_Z14serialEventRunv>
    2944:	fa cf       	rjmp	.-12     	; 0x293a <main+0xc>

00002946 <_Znwj>:
    2946:	3e c2       	rjmp	.+1148   	; 0x2dc4 <malloc>

00002948 <__vector_16>:
    2948:	1f 92       	push	r1
    294a:	0f 92       	push	r0
    294c:	0f b6       	in	r0, 0x3f	; 63
    294e:	0f 92       	push	r0
    2950:	11 24       	eor	r1, r1
    2952:	2f 93       	push	r18
    2954:	3f 93       	push	r19
    2956:	8f 93       	push	r24
    2958:	9f 93       	push	r25
    295a:	af 93       	push	r26
    295c:	bf 93       	push	r27
    295e:	80 91 30 03 	lds	r24, 0x0330	; 0x800330 <timer0_millis>
    2962:	90 91 31 03 	lds	r25, 0x0331	; 0x800331 <timer0_millis+0x1>
    2966:	a0 91 32 03 	lds	r26, 0x0332	; 0x800332 <timer0_millis+0x2>
    296a:	b0 91 33 03 	lds	r27, 0x0333	; 0x800333 <timer0_millis+0x3>
    296e:	30 91 2f 03 	lds	r19, 0x032F	; 0x80032f <timer0_fract>
    2972:	23 e0       	ldi	r18, 0x03	; 3
    2974:	23 0f       	add	r18, r19
    2976:	2d 37       	cpi	r18, 0x7D	; 125
    2978:	20 f4       	brcc	.+8      	; 0x2982 <__vector_16+0x3a>
    297a:	01 96       	adiw	r24, 0x01	; 1
    297c:	a1 1d       	adc	r26, r1
    297e:	b1 1d       	adc	r27, r1
    2980:	05 c0       	rjmp	.+10     	; 0x298c <__vector_16+0x44>
    2982:	26 e8       	ldi	r18, 0x86	; 134
    2984:	23 0f       	add	r18, r19
    2986:	02 96       	adiw	r24, 0x02	; 2
    2988:	a1 1d       	adc	r26, r1
    298a:	b1 1d       	adc	r27, r1
    298c:	20 93 2f 03 	sts	0x032F, r18	; 0x80032f <timer0_fract>
    2990:	80 93 30 03 	sts	0x0330, r24	; 0x800330 <timer0_millis>
    2994:	90 93 31 03 	sts	0x0331, r25	; 0x800331 <timer0_millis+0x1>
    2998:	a0 93 32 03 	sts	0x0332, r26	; 0x800332 <timer0_millis+0x2>
    299c:	b0 93 33 03 	sts	0x0333, r27	; 0x800333 <timer0_millis+0x3>
    29a0:	80 91 34 03 	lds	r24, 0x0334	; 0x800334 <timer0_overflow_count>
    29a4:	90 91 35 03 	lds	r25, 0x0335	; 0x800335 <timer0_overflow_count+0x1>
    29a8:	a0 91 36 03 	lds	r26, 0x0336	; 0x800336 <timer0_overflow_count+0x2>
    29ac:	b0 91 37 03 	lds	r27, 0x0337	; 0x800337 <timer0_overflow_count+0x3>
    29b0:	01 96       	adiw	r24, 0x01	; 1
    29b2:	a1 1d       	adc	r26, r1
    29b4:	b1 1d       	adc	r27, r1
    29b6:	80 93 34 03 	sts	0x0334, r24	; 0x800334 <timer0_overflow_count>
    29ba:	90 93 35 03 	sts	0x0335, r25	; 0x800335 <timer0_overflow_count+0x1>
    29be:	a0 93 36 03 	sts	0x0336, r26	; 0x800336 <timer0_overflow_count+0x2>
    29c2:	b0 93 37 03 	sts	0x0337, r27	; 0x800337 <timer0_overflow_count+0x3>
    29c6:	bf 91       	pop	r27
    29c8:	af 91       	pop	r26
    29ca:	9f 91       	pop	r25
    29cc:	8f 91       	pop	r24
    29ce:	3f 91       	pop	r19
    29d0:	2f 91       	pop	r18
    29d2:	0f 90       	pop	r0
    29d4:	0f be       	out	0x3f, r0	; 63
    29d6:	0f 90       	pop	r0
    29d8:	1f 90       	pop	r1
    29da:	18 95       	reti

000029dc <millis>:
    29dc:	2f b7       	in	r18, 0x3f	; 63
    29de:	f8 94       	cli
    29e0:	60 91 30 03 	lds	r22, 0x0330	; 0x800330 <timer0_millis>
    29e4:	70 91 31 03 	lds	r23, 0x0331	; 0x800331 <timer0_millis+0x1>
    29e8:	80 91 32 03 	lds	r24, 0x0332	; 0x800332 <timer0_millis+0x2>
    29ec:	90 91 33 03 	lds	r25, 0x0333	; 0x800333 <timer0_millis+0x3>
    29f0:	2f bf       	out	0x3f, r18	; 63
    29f2:	08 95       	ret

000029f4 <micros>:
    29f4:	3f b7       	in	r19, 0x3f	; 63
    29f6:	f8 94       	cli
    29f8:	80 91 34 03 	lds	r24, 0x0334	; 0x800334 <timer0_overflow_count>
    29fc:	90 91 35 03 	lds	r25, 0x0335	; 0x800335 <timer0_overflow_count+0x1>
    2a00:	a0 91 36 03 	lds	r26, 0x0336	; 0x800336 <timer0_overflow_count+0x2>
    2a04:	b0 91 37 03 	lds	r27, 0x0337	; 0x800337 <timer0_overflow_count+0x3>
    2a08:	26 b5       	in	r18, 0x26	; 38
    2a0a:	a8 9b       	sbis	0x15, 0	; 21
    2a0c:	05 c0       	rjmp	.+10     	; 0x2a18 <micros+0x24>
    2a0e:	2f 3f       	cpi	r18, 0xFF	; 255
    2a10:	19 f0       	breq	.+6      	; 0x2a18 <micros+0x24>
    2a12:	01 96       	adiw	r24, 0x01	; 1
    2a14:	a1 1d       	adc	r26, r1
    2a16:	b1 1d       	adc	r27, r1
    2a18:	3f bf       	out	0x3f, r19	; 63
    2a1a:	ba 2f       	mov	r27, r26
    2a1c:	a9 2f       	mov	r26, r25
    2a1e:	98 2f       	mov	r25, r24
    2a20:	88 27       	eor	r24, r24
    2a22:	82 0f       	add	r24, r18
    2a24:	91 1d       	adc	r25, r1
    2a26:	a1 1d       	adc	r26, r1
    2a28:	b1 1d       	adc	r27, r1
    2a2a:	bc 01       	movw	r22, r24
    2a2c:	cd 01       	movw	r24, r26
    2a2e:	42 e0       	ldi	r20, 0x02	; 2
    2a30:	66 0f       	add	r22, r22
    2a32:	77 1f       	adc	r23, r23
    2a34:	88 1f       	adc	r24, r24
    2a36:	99 1f       	adc	r25, r25
    2a38:	4a 95       	dec	r20
    2a3a:	d1 f7       	brne	.-12     	; 0x2a30 <micros+0x3c>
    2a3c:	08 95       	ret

00002a3e <delay>:
    2a3e:	8f 92       	push	r8
    2a40:	9f 92       	push	r9
    2a42:	af 92       	push	r10
    2a44:	bf 92       	push	r11
    2a46:	cf 92       	push	r12
    2a48:	df 92       	push	r13
    2a4a:	ef 92       	push	r14
    2a4c:	ff 92       	push	r15
    2a4e:	6b 01       	movw	r12, r22
    2a50:	7c 01       	movw	r14, r24
    2a52:	d0 df       	rcall	.-96     	; 0x29f4 <micros>
    2a54:	4b 01       	movw	r8, r22
    2a56:	5c 01       	movw	r10, r24
    2a58:	c1 14       	cp	r12, r1
    2a5a:	d1 04       	cpc	r13, r1
    2a5c:	e1 04       	cpc	r14, r1
    2a5e:	f1 04       	cpc	r15, r1
    2a60:	f1 f0       	breq	.+60     	; 0x2a9e <delay+0x60>
    2a62:	63 df       	rcall	.-314    	; 0x292a <yield>
    2a64:	c7 df       	rcall	.-114    	; 0x29f4 <micros>
    2a66:	dc 01       	movw	r26, r24
    2a68:	cb 01       	movw	r24, r22
    2a6a:	88 19       	sub	r24, r8
    2a6c:	99 09       	sbc	r25, r9
    2a6e:	aa 09       	sbc	r26, r10
    2a70:	bb 09       	sbc	r27, r11
    2a72:	88 3e       	cpi	r24, 0xE8	; 232
    2a74:	93 40       	sbci	r25, 0x03	; 3
    2a76:	a1 05       	cpc	r26, r1
    2a78:	b1 05       	cpc	r27, r1
    2a7a:	70 f3       	brcs	.-36     	; 0x2a58 <delay+0x1a>
    2a7c:	21 e0       	ldi	r18, 0x01	; 1
    2a7e:	c2 1a       	sub	r12, r18
    2a80:	d1 08       	sbc	r13, r1
    2a82:	e1 08       	sbc	r14, r1
    2a84:	f1 08       	sbc	r15, r1
    2a86:	88 ee       	ldi	r24, 0xE8	; 232
    2a88:	88 0e       	add	r8, r24
    2a8a:	83 e0       	ldi	r24, 0x03	; 3
    2a8c:	98 1e       	adc	r9, r24
    2a8e:	a1 1c       	adc	r10, r1
    2a90:	b1 1c       	adc	r11, r1
    2a92:	c1 14       	cp	r12, r1
    2a94:	d1 04       	cpc	r13, r1
    2a96:	e1 04       	cpc	r14, r1
    2a98:	f1 04       	cpc	r15, r1
    2a9a:	21 f7       	brne	.-56     	; 0x2a64 <delay+0x26>
    2a9c:	dd cf       	rjmp	.-70     	; 0x2a58 <delay+0x1a>
    2a9e:	ff 90       	pop	r15
    2aa0:	ef 90       	pop	r14
    2aa2:	df 90       	pop	r13
    2aa4:	cf 90       	pop	r12
    2aa6:	bf 90       	pop	r11
    2aa8:	af 90       	pop	r10
    2aaa:	9f 90       	pop	r9
    2aac:	8f 90       	pop	r8
    2aae:	08 95       	ret

00002ab0 <init>:
    2ab0:	78 94       	sei
    2ab2:	84 b5       	in	r24, 0x24	; 36
    2ab4:	82 60       	ori	r24, 0x02	; 2
    2ab6:	84 bd       	out	0x24, r24	; 36
    2ab8:	84 b5       	in	r24, 0x24	; 36
    2aba:	81 60       	ori	r24, 0x01	; 1
    2abc:	84 bd       	out	0x24, r24	; 36
    2abe:	85 b5       	in	r24, 0x25	; 37
    2ac0:	82 60       	ori	r24, 0x02	; 2
    2ac2:	85 bd       	out	0x25, r24	; 37
    2ac4:	85 b5       	in	r24, 0x25	; 37
    2ac6:	81 60       	ori	r24, 0x01	; 1
    2ac8:	85 bd       	out	0x25, r24	; 37
    2aca:	ee e6       	ldi	r30, 0x6E	; 110
    2acc:	f0 e0       	ldi	r31, 0x00	; 0
    2ace:	80 81       	ld	r24, Z
    2ad0:	81 60       	ori	r24, 0x01	; 1
    2ad2:	80 83       	st	Z, r24
    2ad4:	e1 e8       	ldi	r30, 0x81	; 129
    2ad6:	f0 e0       	ldi	r31, 0x00	; 0
    2ad8:	10 82       	st	Z, r1
    2ada:	80 81       	ld	r24, Z
    2adc:	82 60       	ori	r24, 0x02	; 2
    2ade:	80 83       	st	Z, r24
    2ae0:	80 81       	ld	r24, Z
    2ae2:	81 60       	ori	r24, 0x01	; 1
    2ae4:	80 83       	st	Z, r24
    2ae6:	e0 e8       	ldi	r30, 0x80	; 128
    2ae8:	f0 e0       	ldi	r31, 0x00	; 0
    2aea:	80 81       	ld	r24, Z
    2aec:	81 60       	ori	r24, 0x01	; 1
    2aee:	80 83       	st	Z, r24
    2af0:	e1 eb       	ldi	r30, 0xB1	; 177
    2af2:	f0 e0       	ldi	r31, 0x00	; 0
    2af4:	80 81       	ld	r24, Z
    2af6:	84 60       	ori	r24, 0x04	; 4
    2af8:	80 83       	st	Z, r24
    2afa:	e0 eb       	ldi	r30, 0xB0	; 176
    2afc:	f0 e0       	ldi	r31, 0x00	; 0
    2afe:	80 81       	ld	r24, Z
    2b00:	81 60       	ori	r24, 0x01	; 1
    2b02:	80 83       	st	Z, r24
    2b04:	ea e7       	ldi	r30, 0x7A	; 122
    2b06:	f0 e0       	ldi	r31, 0x00	; 0
    2b08:	80 81       	ld	r24, Z
    2b0a:	84 60       	ori	r24, 0x04	; 4
    2b0c:	80 83       	st	Z, r24
    2b0e:	80 81       	ld	r24, Z
    2b10:	82 60       	ori	r24, 0x02	; 2
    2b12:	80 83       	st	Z, r24
    2b14:	80 81       	ld	r24, Z
    2b16:	81 60       	ori	r24, 0x01	; 1
    2b18:	80 83       	st	Z, r24
    2b1a:	80 81       	ld	r24, Z
    2b1c:	80 68       	ori	r24, 0x80	; 128
    2b1e:	80 83       	st	Z, r24
    2b20:	10 92 c1 00 	sts	0x00C1, r1	; 0x8000c1 <__data_load_end+0x7fc817>
    2b24:	08 95       	ret

00002b26 <turnOffPWM>:
    2b26:	83 30       	cpi	r24, 0x03	; 3
    2b28:	81 f0       	breq	.+32     	; 0x2b4a <turnOffPWM+0x24>
    2b2a:	28 f4       	brcc	.+10     	; 0x2b36 <turnOffPWM+0x10>
    2b2c:	81 30       	cpi	r24, 0x01	; 1
    2b2e:	99 f0       	breq	.+38     	; 0x2b56 <turnOffPWM+0x30>
    2b30:	82 30       	cpi	r24, 0x02	; 2
    2b32:	a1 f0       	breq	.+40     	; 0x2b5c <turnOffPWM+0x36>
    2b34:	08 95       	ret
    2b36:	87 30       	cpi	r24, 0x07	; 7
    2b38:	a9 f0       	breq	.+42     	; 0x2b64 <turnOffPWM+0x3e>
    2b3a:	88 30       	cpi	r24, 0x08	; 8
    2b3c:	b9 f0       	breq	.+46     	; 0x2b6c <turnOffPWM+0x46>
    2b3e:	84 30       	cpi	r24, 0x04	; 4
    2b40:	d1 f4       	brne	.+52     	; 0x2b76 <turnOffPWM+0x50>
    2b42:	80 91 80 00 	lds	r24, 0x0080	; 0x800080 <__data_load_end+0x7fc7d6>
    2b46:	8f 7d       	andi	r24, 0xDF	; 223
    2b48:	03 c0       	rjmp	.+6      	; 0x2b50 <turnOffPWM+0x2a>
    2b4a:	80 91 80 00 	lds	r24, 0x0080	; 0x800080 <__data_load_end+0x7fc7d6>
    2b4e:	8f 77       	andi	r24, 0x7F	; 127
    2b50:	80 93 80 00 	sts	0x0080, r24	; 0x800080 <__data_load_end+0x7fc7d6>
    2b54:	08 95       	ret
    2b56:	84 b5       	in	r24, 0x24	; 36
    2b58:	8f 77       	andi	r24, 0x7F	; 127
    2b5a:	02 c0       	rjmp	.+4      	; 0x2b60 <turnOffPWM+0x3a>
    2b5c:	84 b5       	in	r24, 0x24	; 36
    2b5e:	8f 7d       	andi	r24, 0xDF	; 223
    2b60:	84 bd       	out	0x24, r24	; 36
    2b62:	08 95       	ret
    2b64:	80 91 b0 00 	lds	r24, 0x00B0	; 0x8000b0 <__data_load_end+0x7fc806>
    2b68:	8f 77       	andi	r24, 0x7F	; 127
    2b6a:	03 c0       	rjmp	.+6      	; 0x2b72 <turnOffPWM+0x4c>
    2b6c:	80 91 b0 00 	lds	r24, 0x00B0	; 0x8000b0 <__data_load_end+0x7fc806>
    2b70:	8f 7d       	andi	r24, 0xDF	; 223
    2b72:	80 93 b0 00 	sts	0x00B0, r24	; 0x8000b0 <__data_load_end+0x7fc806>
    2b76:	08 95       	ret

00002b78 <pinMode>:
    2b78:	cf 93       	push	r28
    2b7a:	df 93       	push	r29
    2b7c:	90 e0       	ldi	r25, 0x00	; 0
    2b7e:	fc 01       	movw	r30, r24
    2b80:	e4 58       	subi	r30, 0x84	; 132
    2b82:	ff 4f       	sbci	r31, 0xFF	; 255
    2b84:	24 91       	lpm	r18, Z
    2b86:	fc 01       	movw	r30, r24
    2b88:	e0 57       	subi	r30, 0x70	; 112
    2b8a:	ff 4f       	sbci	r31, 0xFF	; 255
    2b8c:	84 91       	lpm	r24, Z
    2b8e:	88 23       	and	r24, r24
    2b90:	61 f1       	breq	.+88     	; 0x2bea <pinMode+0x72>
    2b92:	90 e0       	ldi	r25, 0x00	; 0
    2b94:	88 0f       	add	r24, r24
    2b96:	99 1f       	adc	r25, r25
    2b98:	fc 01       	movw	r30, r24
    2b9a:	e8 54       	subi	r30, 0x48	; 72
    2b9c:	ff 4f       	sbci	r31, 0xFF	; 255
    2b9e:	c5 91       	lpm	r28, Z+
    2ba0:	d4 91       	lpm	r29, Z
    2ba2:	fc 01       	movw	r30, r24
    2ba4:	e2 55       	subi	r30, 0x52	; 82
    2ba6:	ff 4f       	sbci	r31, 0xFF	; 255
    2ba8:	a5 91       	lpm	r26, Z+
    2baa:	b4 91       	lpm	r27, Z
    2bac:	61 11       	cpse	r22, r1
    2bae:	09 c0       	rjmp	.+18     	; 0x2bc2 <pinMode+0x4a>
    2bb0:	9f b7       	in	r25, 0x3f	; 63
    2bb2:	f8 94       	cli
    2bb4:	88 81       	ld	r24, Y
    2bb6:	20 95       	com	r18
    2bb8:	82 23       	and	r24, r18
    2bba:	88 83       	st	Y, r24
    2bbc:	ec 91       	ld	r30, X
    2bbe:	2e 23       	and	r18, r30
    2bc0:	0b c0       	rjmp	.+22     	; 0x2bd8 <pinMode+0x60>
    2bc2:	62 30       	cpi	r22, 0x02	; 2
    2bc4:	61 f4       	brne	.+24     	; 0x2bde <pinMode+0x66>
    2bc6:	9f b7       	in	r25, 0x3f	; 63
    2bc8:	f8 94       	cli
    2bca:	38 81       	ld	r19, Y
    2bcc:	82 2f       	mov	r24, r18
    2bce:	80 95       	com	r24
    2bd0:	83 23       	and	r24, r19
    2bd2:	88 83       	st	Y, r24
    2bd4:	ec 91       	ld	r30, X
    2bd6:	2e 2b       	or	r18, r30
    2bd8:	2c 93       	st	X, r18
    2bda:	9f bf       	out	0x3f, r25	; 63
    2bdc:	06 c0       	rjmp	.+12     	; 0x2bea <pinMode+0x72>
    2bde:	8f b7       	in	r24, 0x3f	; 63
    2be0:	f8 94       	cli
    2be2:	e8 81       	ld	r30, Y
    2be4:	2e 2b       	or	r18, r30
    2be6:	28 83       	st	Y, r18
    2be8:	8f bf       	out	0x3f, r24	; 63
    2bea:	df 91       	pop	r29
    2bec:	cf 91       	pop	r28
    2bee:	08 95       	ret

00002bf0 <digitalWrite>:
    2bf0:	1f 93       	push	r17
    2bf2:	cf 93       	push	r28
    2bf4:	df 93       	push	r29
    2bf6:	28 2f       	mov	r18, r24
    2bf8:	30 e0       	ldi	r19, 0x00	; 0
    2bfa:	f9 01       	movw	r30, r18
    2bfc:	e8 59       	subi	r30, 0x98	; 152
    2bfe:	ff 4f       	sbci	r31, 0xFF	; 255
    2c00:	84 91       	lpm	r24, Z
    2c02:	f9 01       	movw	r30, r18
    2c04:	e4 58       	subi	r30, 0x84	; 132
    2c06:	ff 4f       	sbci	r31, 0xFF	; 255
    2c08:	d4 91       	lpm	r29, Z
    2c0a:	f9 01       	movw	r30, r18
    2c0c:	e0 57       	subi	r30, 0x70	; 112
    2c0e:	ff 4f       	sbci	r31, 0xFF	; 255
    2c10:	c4 91       	lpm	r28, Z
    2c12:	cc 23       	and	r28, r28
    2c14:	c1 f0       	breq	.+48     	; 0x2c46 <digitalWrite+0x56>
    2c16:	16 2f       	mov	r17, r22
    2c18:	81 11       	cpse	r24, r1
    2c1a:	85 df       	rcall	.-246    	; 0x2b26 <turnOffPWM>
    2c1c:	ec 2f       	mov	r30, r28
    2c1e:	f0 e0       	ldi	r31, 0x00	; 0
    2c20:	ee 0f       	add	r30, r30
    2c22:	ff 1f       	adc	r31, r31
    2c24:	e2 55       	subi	r30, 0x52	; 82
    2c26:	ff 4f       	sbci	r31, 0xFF	; 255
    2c28:	a5 91       	lpm	r26, Z+
    2c2a:	b4 91       	lpm	r27, Z
    2c2c:	8f b7       	in	r24, 0x3f	; 63
    2c2e:	f8 94       	cli
    2c30:	11 11       	cpse	r17, r1
    2c32:	05 c0       	rjmp	.+10     	; 0x2c3e <digitalWrite+0x4e>
    2c34:	9c 91       	ld	r25, X
    2c36:	ed 2f       	mov	r30, r29
    2c38:	e0 95       	com	r30
    2c3a:	e9 23       	and	r30, r25
    2c3c:	02 c0       	rjmp	.+4      	; 0x2c42 <digitalWrite+0x52>
    2c3e:	ec 91       	ld	r30, X
    2c40:	ed 2b       	or	r30, r29
    2c42:	ec 93       	st	X, r30
    2c44:	8f bf       	out	0x3f, r24	; 63
    2c46:	df 91       	pop	r29
    2c48:	cf 91       	pop	r28
    2c4a:	1f 91       	pop	r17
    2c4c:	08 95       	ret

00002c4e <pulseInLong>:
    2c4e:	4f 92       	push	r4
    2c50:	5f 92       	push	r5
    2c52:	6f 92       	push	r6
    2c54:	7f 92       	push	r7
    2c56:	8f 92       	push	r8
    2c58:	9f 92       	push	r9
    2c5a:	af 92       	push	r10
    2c5c:	bf 92       	push	r11
    2c5e:	cf 92       	push	r12
    2c60:	df 92       	push	r13
    2c62:	ef 92       	push	r14
    2c64:	ff 92       	push	r15
    2c66:	0f 93       	push	r16
    2c68:	1f 93       	push	r17
    2c6a:	cf 93       	push	r28
    2c6c:	df 93       	push	r29
    2c6e:	69 01       	movw	r12, r18
    2c70:	7a 01       	movw	r14, r20
    2c72:	90 e0       	ldi	r25, 0x00	; 0
    2c74:	fc 01       	movw	r30, r24
    2c76:	e4 58       	subi	r30, 0x84	; 132
    2c78:	ff 4f       	sbci	r31, 0xFF	; 255
    2c7a:	14 91       	lpm	r17, Z
    2c7c:	fc 01       	movw	r30, r24
    2c7e:	e0 57       	subi	r30, 0x70	; 112
    2c80:	ff 4f       	sbci	r31, 0xFF	; 255
    2c82:	c4 91       	lpm	r28, Z
    2c84:	66 23       	and	r22, r22
    2c86:	11 f0       	breq	.+4      	; 0x2c8c <pulseInLong+0x3e>
    2c88:	01 2f       	mov	r16, r17
    2c8a:	01 c0       	rjmp	.+2      	; 0x2c8e <pulseInLong+0x40>
    2c8c:	00 e0       	ldi	r16, 0x00	; 0
    2c8e:	b2 de       	rcall	.-668    	; 0x29f4 <micros>
    2c90:	4b 01       	movw	r8, r22
    2c92:	5c 01       	movw	r10, r24
    2c94:	d0 e0       	ldi	r29, 0x00	; 0
    2c96:	cc 0f       	add	r28, r28
    2c98:	dd 1f       	adc	r29, r29
    2c9a:	cc 55       	subi	r28, 0x5C	; 92
    2c9c:	df 4f       	sbci	r29, 0xFF	; 255
    2c9e:	fe 01       	movw	r30, r28
    2ca0:	a5 91       	lpm	r26, Z+
    2ca2:	b4 91       	lpm	r27, Z
    2ca4:	8c 91       	ld	r24, X
    2ca6:	81 23       	and	r24, r17
    2ca8:	80 13       	cpse	r24, r16
    2caa:	1c c0       	rjmp	.+56     	; 0x2ce4 <pulseInLong+0x96>
    2cac:	a3 de       	rcall	.-698    	; 0x29f4 <micros>
    2cae:	dc 01       	movw	r26, r24
    2cb0:	cb 01       	movw	r24, r22
    2cb2:	88 19       	sub	r24, r8
    2cb4:	99 09       	sbc	r25, r9
    2cb6:	aa 09       	sbc	r26, r10
    2cb8:	bb 09       	sbc	r27, r11
    2cba:	c8 16       	cp	r12, r24
    2cbc:	d9 06       	cpc	r13, r25
    2cbe:	ea 06       	cpc	r14, r26
    2cc0:	fb 06       	cpc	r15, r27
    2cc2:	68 f7       	brcc	.-38     	; 0x2c9e <pulseInLong+0x50>
    2cc4:	60 e0       	ldi	r22, 0x00	; 0
    2cc6:	70 e0       	ldi	r23, 0x00	; 0
    2cc8:	cb 01       	movw	r24, r22
    2cca:	2f c0       	rjmp	.+94     	; 0x2d2a <pulseInLong+0xdc>
    2ccc:	93 de       	rcall	.-730    	; 0x29f4 <micros>
    2cce:	dc 01       	movw	r26, r24
    2cd0:	cb 01       	movw	r24, r22
    2cd2:	88 19       	sub	r24, r8
    2cd4:	99 09       	sbc	r25, r9
    2cd6:	aa 09       	sbc	r26, r10
    2cd8:	bb 09       	sbc	r27, r11
    2cda:	c8 16       	cp	r12, r24
    2cdc:	d9 06       	cpc	r13, r25
    2cde:	ea 06       	cpc	r14, r26
    2ce0:	fb 06       	cpc	r15, r27
    2ce2:	80 f3       	brcs	.-32     	; 0x2cc4 <pulseInLong+0x76>
    2ce4:	fe 01       	movw	r30, r28
    2ce6:	a5 91       	lpm	r26, Z+
    2ce8:	b4 91       	lpm	r27, Z
    2cea:	8c 91       	ld	r24, X
    2cec:	81 23       	and	r24, r17
    2cee:	80 13       	cpse	r24, r16
    2cf0:	ed cf       	rjmp	.-38     	; 0x2ccc <pulseInLong+0x7e>
    2cf2:	80 de       	rcall	.-768    	; 0x29f4 <micros>
    2cf4:	2b 01       	movw	r4, r22
    2cf6:	3c 01       	movw	r6, r24
    2cf8:	fe 01       	movw	r30, r28
    2cfa:	a5 91       	lpm	r26, Z+
    2cfc:	b4 91       	lpm	r27, Z
    2cfe:	8c 91       	ld	r24, X
    2d00:	81 23       	and	r24, r17
    2d02:	80 13       	cpse	r24, r16
    2d04:	0d c0       	rjmp	.+26     	; 0x2d20 <pulseInLong+0xd2>
    2d06:	76 de       	rcall	.-788    	; 0x29f4 <micros>
    2d08:	dc 01       	movw	r26, r24
    2d0a:	cb 01       	movw	r24, r22
    2d0c:	88 19       	sub	r24, r8
    2d0e:	99 09       	sbc	r25, r9
    2d10:	aa 09       	sbc	r26, r10
    2d12:	bb 09       	sbc	r27, r11
    2d14:	c8 16       	cp	r12, r24
    2d16:	d9 06       	cpc	r13, r25
    2d18:	ea 06       	cpc	r14, r26
    2d1a:	fb 06       	cpc	r15, r27
    2d1c:	68 f7       	brcc	.-38     	; 0x2cf8 <pulseInLong+0xaa>
    2d1e:	d2 cf       	rjmp	.-92     	; 0x2cc4 <pulseInLong+0x76>
    2d20:	69 de       	rcall	.-814    	; 0x29f4 <micros>
    2d22:	64 19       	sub	r22, r4
    2d24:	75 09       	sbc	r23, r5
    2d26:	86 09       	sbc	r24, r6
    2d28:	97 09       	sbc	r25, r7
    2d2a:	df 91       	pop	r29
    2d2c:	cf 91       	pop	r28
    2d2e:	1f 91       	pop	r17
    2d30:	0f 91       	pop	r16
    2d32:	ff 90       	pop	r15
    2d34:	ef 90       	pop	r14
    2d36:	df 90       	pop	r13
    2d38:	cf 90       	pop	r12
    2d3a:	bf 90       	pop	r11
    2d3c:	af 90       	pop	r10
    2d3e:	9f 90       	pop	r9
    2d40:	8f 90       	pop	r8
    2d42:	7f 90       	pop	r7
    2d44:	6f 90       	pop	r6
    2d46:	5f 90       	pop	r5
    2d48:	4f 90       	pop	r4
    2d4a:	08 95       	ret

00002d4c <__udivmodhi4>:
    2d4c:	aa 1b       	sub	r26, r26
    2d4e:	bb 1b       	sub	r27, r27
    2d50:	51 e1       	ldi	r21, 0x11	; 17
    2d52:	07 c0       	rjmp	.+14     	; 0x2d62 <__udivmodhi4_ep>

00002d54 <__udivmodhi4_loop>:
    2d54:	aa 1f       	adc	r26, r26
    2d56:	bb 1f       	adc	r27, r27
    2d58:	a6 17       	cp	r26, r22
    2d5a:	b7 07       	cpc	r27, r23
    2d5c:	10 f0       	brcs	.+4      	; 0x2d62 <__udivmodhi4_ep>
    2d5e:	a6 1b       	sub	r26, r22
    2d60:	b7 0b       	sbc	r27, r23

00002d62 <__udivmodhi4_ep>:
    2d62:	88 1f       	adc	r24, r24
    2d64:	99 1f       	adc	r25, r25
    2d66:	5a 95       	dec	r21
    2d68:	a9 f7       	brne	.-22     	; 0x2d54 <__udivmodhi4_loop>
    2d6a:	80 95       	com	r24
    2d6c:	90 95       	com	r25
    2d6e:	bc 01       	movw	r22, r24
    2d70:	cd 01       	movw	r24, r26
    2d72:	08 95       	ret

00002d74 <__udivmodsi4>:
    2d74:	a1 e2       	ldi	r26, 0x21	; 33
    2d76:	1a 2e       	mov	r1, r26
    2d78:	aa 1b       	sub	r26, r26
    2d7a:	bb 1b       	sub	r27, r27
    2d7c:	fd 01       	movw	r30, r26
    2d7e:	0d c0       	rjmp	.+26     	; 0x2d9a <__udivmodsi4_ep>

00002d80 <__udivmodsi4_loop>:
    2d80:	aa 1f       	adc	r26, r26
    2d82:	bb 1f       	adc	r27, r27
    2d84:	ee 1f       	adc	r30, r30
    2d86:	ff 1f       	adc	r31, r31
    2d88:	a2 17       	cp	r26, r18
    2d8a:	b3 07       	cpc	r27, r19
    2d8c:	e4 07       	cpc	r30, r20
    2d8e:	f5 07       	cpc	r31, r21
    2d90:	20 f0       	brcs	.+8      	; 0x2d9a <__udivmodsi4_ep>
    2d92:	a2 1b       	sub	r26, r18
    2d94:	b3 0b       	sbc	r27, r19
    2d96:	e4 0b       	sbc	r30, r20
    2d98:	f5 0b       	sbc	r31, r21

00002d9a <__udivmodsi4_ep>:
    2d9a:	66 1f       	adc	r22, r22
    2d9c:	77 1f       	adc	r23, r23
    2d9e:	88 1f       	adc	r24, r24
    2da0:	99 1f       	adc	r25, r25
    2da2:	1a 94       	dec	r1
    2da4:	69 f7       	brne	.-38     	; 0x2d80 <__udivmodsi4_loop>
    2da6:	60 95       	com	r22
    2da8:	70 95       	com	r23
    2daa:	80 95       	com	r24
    2dac:	90 95       	com	r25
    2dae:	9b 01       	movw	r18, r22
    2db0:	ac 01       	movw	r20, r24
    2db2:	bd 01       	movw	r22, r26
    2db4:	cf 01       	movw	r24, r30
    2db6:	08 95       	ret

00002db8 <__tablejump2__>:
    2db8:	ee 0f       	add	r30, r30
    2dba:	ff 1f       	adc	r31, r31
    2dbc:	05 90       	lpm	r0, Z+
    2dbe:	f4 91       	lpm	r31, Z
    2dc0:	e0 2d       	mov	r30, r0
    2dc2:	09 94       	ijmp

00002dc4 <malloc>:
    2dc4:	cf 93       	push	r28
    2dc6:	df 93       	push	r29
    2dc8:	82 30       	cpi	r24, 0x02	; 2
    2dca:	91 05       	cpc	r25, r1
    2dcc:	10 f4       	brcc	.+4      	; 0x2dd2 <malloc+0xe>
    2dce:	82 e0       	ldi	r24, 0x02	; 2
    2dd0:	90 e0       	ldi	r25, 0x00	; 0
    2dd2:	e0 91 3a 03 	lds	r30, 0x033A	; 0x80033a <__flp>
    2dd6:	f0 91 3b 03 	lds	r31, 0x033B	; 0x80033b <__flp+0x1>
    2dda:	20 e0       	ldi	r18, 0x00	; 0
    2ddc:	30 e0       	ldi	r19, 0x00	; 0
    2dde:	c0 e0       	ldi	r28, 0x00	; 0
    2de0:	d0 e0       	ldi	r29, 0x00	; 0
    2de2:	30 97       	sbiw	r30, 0x00	; 0
    2de4:	11 f1       	breq	.+68     	; 0x2e2a <malloc+0x66>
    2de6:	40 81       	ld	r20, Z
    2de8:	51 81       	ldd	r21, Z+1	; 0x01
    2dea:	48 17       	cp	r20, r24
    2dec:	59 07       	cpc	r21, r25
    2dee:	c0 f0       	brcs	.+48     	; 0x2e20 <malloc+0x5c>
    2df0:	48 17       	cp	r20, r24
    2df2:	59 07       	cpc	r21, r25
    2df4:	61 f4       	brne	.+24     	; 0x2e0e <malloc+0x4a>
    2df6:	82 81       	ldd	r24, Z+2	; 0x02
    2df8:	93 81       	ldd	r25, Z+3	; 0x03
    2dfa:	20 97       	sbiw	r28, 0x00	; 0
    2dfc:	19 f0       	breq	.+6      	; 0x2e04 <malloc+0x40>
    2dfe:	9b 83       	std	Y+3, r25	; 0x03
    2e00:	8a 83       	std	Y+2, r24	; 0x02
    2e02:	2b c0       	rjmp	.+86     	; 0x2e5a <malloc+0x96>
    2e04:	90 93 3b 03 	sts	0x033B, r25	; 0x80033b <__flp+0x1>
    2e08:	80 93 3a 03 	sts	0x033A, r24	; 0x80033a <__flp>
    2e0c:	26 c0       	rjmp	.+76     	; 0x2e5a <malloc+0x96>
    2e0e:	21 15       	cp	r18, r1
    2e10:	31 05       	cpc	r19, r1
    2e12:	19 f0       	breq	.+6      	; 0x2e1a <malloc+0x56>
    2e14:	42 17       	cp	r20, r18
    2e16:	53 07       	cpc	r21, r19
    2e18:	18 f4       	brcc	.+6      	; 0x2e20 <malloc+0x5c>
    2e1a:	9a 01       	movw	r18, r20
    2e1c:	be 01       	movw	r22, r28
    2e1e:	df 01       	movw	r26, r30
    2e20:	ef 01       	movw	r28, r30
    2e22:	02 80       	ldd	r0, Z+2	; 0x02
    2e24:	f3 81       	ldd	r31, Z+3	; 0x03
    2e26:	e0 2d       	mov	r30, r0
    2e28:	dc cf       	rjmp	.-72     	; 0x2de2 <malloc+0x1e>
    2e2a:	21 15       	cp	r18, r1
    2e2c:	31 05       	cpc	r19, r1
    2e2e:	09 f1       	breq	.+66     	; 0x2e72 <malloc+0xae>
    2e30:	28 1b       	sub	r18, r24
    2e32:	39 0b       	sbc	r19, r25
    2e34:	24 30       	cpi	r18, 0x04	; 4
    2e36:	31 05       	cpc	r19, r1
    2e38:	90 f4       	brcc	.+36     	; 0x2e5e <malloc+0x9a>
    2e3a:	12 96       	adiw	r26, 0x02	; 2
    2e3c:	8d 91       	ld	r24, X+
    2e3e:	9c 91       	ld	r25, X
    2e40:	13 97       	sbiw	r26, 0x03	; 3
    2e42:	61 15       	cp	r22, r1
    2e44:	71 05       	cpc	r23, r1
    2e46:	21 f0       	breq	.+8      	; 0x2e50 <malloc+0x8c>
    2e48:	fb 01       	movw	r30, r22
    2e4a:	93 83       	std	Z+3, r25	; 0x03
    2e4c:	82 83       	std	Z+2, r24	; 0x02
    2e4e:	04 c0       	rjmp	.+8      	; 0x2e58 <malloc+0x94>
    2e50:	90 93 3b 03 	sts	0x033B, r25	; 0x80033b <__flp+0x1>
    2e54:	80 93 3a 03 	sts	0x033A, r24	; 0x80033a <__flp>
    2e58:	fd 01       	movw	r30, r26
    2e5a:	32 96       	adiw	r30, 0x02	; 2
    2e5c:	44 c0       	rjmp	.+136    	; 0x2ee6 <malloc+0x122>
    2e5e:	fd 01       	movw	r30, r26
    2e60:	e2 0f       	add	r30, r18
    2e62:	f3 1f       	adc	r31, r19
    2e64:	81 93       	st	Z+, r24
    2e66:	91 93       	st	Z+, r25
    2e68:	22 50       	subi	r18, 0x02	; 2
    2e6a:	31 09       	sbc	r19, r1
    2e6c:	2d 93       	st	X+, r18
    2e6e:	3c 93       	st	X, r19
    2e70:	3a c0       	rjmp	.+116    	; 0x2ee6 <malloc+0x122>
    2e72:	20 91 38 03 	lds	r18, 0x0338	; 0x800338 <__brkval>
    2e76:	30 91 39 03 	lds	r19, 0x0339	; 0x800339 <__brkval+0x1>
    2e7a:	23 2b       	or	r18, r19
    2e7c:	41 f4       	brne	.+16     	; 0x2e8e <malloc+0xca>
    2e7e:	20 91 02 01 	lds	r18, 0x0102	; 0x800102 <__malloc_heap_start>
    2e82:	30 91 03 01 	lds	r19, 0x0103	; 0x800103 <__malloc_heap_start+0x1>
    2e86:	30 93 39 03 	sts	0x0339, r19	; 0x800339 <__brkval+0x1>
    2e8a:	20 93 38 03 	sts	0x0338, r18	; 0x800338 <__brkval>
    2e8e:	20 91 00 01 	lds	r18, 0x0100	; 0x800100 <__data_start>
    2e92:	30 91 01 01 	lds	r19, 0x0101	; 0x800101 <__data_start+0x1>
    2e96:	21 15       	cp	r18, r1
    2e98:	31 05       	cpc	r19, r1
    2e9a:	41 f4       	brne	.+16     	; 0x2eac <malloc+0xe8>
    2e9c:	2d b7       	in	r18, 0x3d	; 61
    2e9e:	3e b7       	in	r19, 0x3e	; 62
    2ea0:	40 91 04 01 	lds	r20, 0x0104	; 0x800104 <__malloc_margin>
    2ea4:	50 91 05 01 	lds	r21, 0x0105	; 0x800105 <__malloc_margin+0x1>
    2ea8:	24 1b       	sub	r18, r20
    2eaa:	35 0b       	sbc	r19, r21
    2eac:	e0 91 38 03 	lds	r30, 0x0338	; 0x800338 <__brkval>
    2eb0:	f0 91 39 03 	lds	r31, 0x0339	; 0x800339 <__brkval+0x1>
    2eb4:	e2 17       	cp	r30, r18
    2eb6:	f3 07       	cpc	r31, r19
    2eb8:	a0 f4       	brcc	.+40     	; 0x2ee2 <malloc+0x11e>
    2eba:	2e 1b       	sub	r18, r30
    2ebc:	3f 0b       	sbc	r19, r31
    2ebe:	28 17       	cp	r18, r24
    2ec0:	39 07       	cpc	r19, r25
    2ec2:	78 f0       	brcs	.+30     	; 0x2ee2 <malloc+0x11e>
    2ec4:	ac 01       	movw	r20, r24
    2ec6:	4e 5f       	subi	r20, 0xFE	; 254
    2ec8:	5f 4f       	sbci	r21, 0xFF	; 255
    2eca:	24 17       	cp	r18, r20
    2ecc:	35 07       	cpc	r19, r21
    2ece:	48 f0       	brcs	.+18     	; 0x2ee2 <malloc+0x11e>
    2ed0:	4e 0f       	add	r20, r30
    2ed2:	5f 1f       	adc	r21, r31
    2ed4:	50 93 39 03 	sts	0x0339, r21	; 0x800339 <__brkval+0x1>
    2ed8:	40 93 38 03 	sts	0x0338, r20	; 0x800338 <__brkval>
    2edc:	81 93       	st	Z+, r24
    2ede:	91 93       	st	Z+, r25
    2ee0:	02 c0       	rjmp	.+4      	; 0x2ee6 <malloc+0x122>
    2ee2:	e0 e0       	ldi	r30, 0x00	; 0
    2ee4:	f0 e0       	ldi	r31, 0x00	; 0
    2ee6:	cf 01       	movw	r24, r30
    2ee8:	df 91       	pop	r29
    2eea:	cf 91       	pop	r28
    2eec:	08 95       	ret

00002eee <free>:
    2eee:	0f 93       	push	r16
    2ef0:	1f 93       	push	r17
    2ef2:	cf 93       	push	r28
    2ef4:	df 93       	push	r29
    2ef6:	00 97       	sbiw	r24, 0x00	; 0
    2ef8:	09 f4       	brne	.+2      	; 0x2efc <free+0xe>
    2efa:	8c c0       	rjmp	.+280    	; 0x3014 <free+0x126>
    2efc:	fc 01       	movw	r30, r24
    2efe:	32 97       	sbiw	r30, 0x02	; 2
    2f00:	13 82       	std	Z+3, r1	; 0x03
    2f02:	12 82       	std	Z+2, r1	; 0x02
    2f04:	00 91 3a 03 	lds	r16, 0x033A	; 0x80033a <__flp>
    2f08:	10 91 3b 03 	lds	r17, 0x033B	; 0x80033b <__flp+0x1>
    2f0c:	01 15       	cp	r16, r1
    2f0e:	11 05       	cpc	r17, r1
    2f10:	81 f4       	brne	.+32     	; 0x2f32 <free+0x44>
    2f12:	20 81       	ld	r18, Z
    2f14:	31 81       	ldd	r19, Z+1	; 0x01
    2f16:	82 0f       	add	r24, r18
    2f18:	93 1f       	adc	r25, r19
    2f1a:	20 91 38 03 	lds	r18, 0x0338	; 0x800338 <__brkval>
    2f1e:	30 91 39 03 	lds	r19, 0x0339	; 0x800339 <__brkval+0x1>
    2f22:	28 17       	cp	r18, r24
    2f24:	39 07       	cpc	r19, r25
    2f26:	79 f5       	brne	.+94     	; 0x2f86 <free+0x98>
    2f28:	f0 93 39 03 	sts	0x0339, r31	; 0x800339 <__brkval+0x1>
    2f2c:	e0 93 38 03 	sts	0x0338, r30	; 0x800338 <__brkval>
    2f30:	71 c0       	rjmp	.+226    	; 0x3014 <free+0x126>
    2f32:	d8 01       	movw	r26, r16
    2f34:	40 e0       	ldi	r20, 0x00	; 0
    2f36:	50 e0       	ldi	r21, 0x00	; 0
    2f38:	ae 17       	cp	r26, r30
    2f3a:	bf 07       	cpc	r27, r31
    2f3c:	50 f4       	brcc	.+20     	; 0x2f52 <free+0x64>
    2f3e:	12 96       	adiw	r26, 0x02	; 2
    2f40:	2d 91       	ld	r18, X+
    2f42:	3c 91       	ld	r19, X
    2f44:	13 97       	sbiw	r26, 0x03	; 3
    2f46:	ad 01       	movw	r20, r26
    2f48:	21 15       	cp	r18, r1
    2f4a:	31 05       	cpc	r19, r1
    2f4c:	09 f1       	breq	.+66     	; 0x2f90 <free+0xa2>
    2f4e:	d9 01       	movw	r26, r18
    2f50:	f3 cf       	rjmp	.-26     	; 0x2f38 <free+0x4a>
    2f52:	9d 01       	movw	r18, r26
    2f54:	da 01       	movw	r26, r20
    2f56:	33 83       	std	Z+3, r19	; 0x03
    2f58:	22 83       	std	Z+2, r18	; 0x02
    2f5a:	60 81       	ld	r22, Z
    2f5c:	71 81       	ldd	r23, Z+1	; 0x01
    2f5e:	86 0f       	add	r24, r22
    2f60:	97 1f       	adc	r25, r23
    2f62:	82 17       	cp	r24, r18
    2f64:	93 07       	cpc	r25, r19
    2f66:	69 f4       	brne	.+26     	; 0x2f82 <free+0x94>
    2f68:	ec 01       	movw	r28, r24
    2f6a:	28 81       	ld	r18, Y
    2f6c:	39 81       	ldd	r19, Y+1	; 0x01
    2f6e:	26 0f       	add	r18, r22
    2f70:	37 1f       	adc	r19, r23
    2f72:	2e 5f       	subi	r18, 0xFE	; 254
    2f74:	3f 4f       	sbci	r19, 0xFF	; 255
    2f76:	31 83       	std	Z+1, r19	; 0x01
    2f78:	20 83       	st	Z, r18
    2f7a:	8a 81       	ldd	r24, Y+2	; 0x02
    2f7c:	9b 81       	ldd	r25, Y+3	; 0x03
    2f7e:	93 83       	std	Z+3, r25	; 0x03
    2f80:	82 83       	std	Z+2, r24	; 0x02
    2f82:	45 2b       	or	r20, r21
    2f84:	29 f4       	brne	.+10     	; 0x2f90 <free+0xa2>
    2f86:	f0 93 3b 03 	sts	0x033B, r31	; 0x80033b <__flp+0x1>
    2f8a:	e0 93 3a 03 	sts	0x033A, r30	; 0x80033a <__flp>
    2f8e:	42 c0       	rjmp	.+132    	; 0x3014 <free+0x126>
    2f90:	13 96       	adiw	r26, 0x03	; 3
    2f92:	fc 93       	st	X, r31
    2f94:	ee 93       	st	-X, r30
    2f96:	12 97       	sbiw	r26, 0x02	; 2
    2f98:	ed 01       	movw	r28, r26
    2f9a:	49 91       	ld	r20, Y+
    2f9c:	59 91       	ld	r21, Y+
    2f9e:	9e 01       	movw	r18, r28
    2fa0:	24 0f       	add	r18, r20
    2fa2:	35 1f       	adc	r19, r21
    2fa4:	e2 17       	cp	r30, r18
    2fa6:	f3 07       	cpc	r31, r19
    2fa8:	71 f4       	brne	.+28     	; 0x2fc6 <free+0xd8>
    2faa:	80 81       	ld	r24, Z
    2fac:	91 81       	ldd	r25, Z+1	; 0x01
    2fae:	84 0f       	add	r24, r20
    2fb0:	95 1f       	adc	r25, r21
    2fb2:	02 96       	adiw	r24, 0x02	; 2
    2fb4:	11 96       	adiw	r26, 0x01	; 1
    2fb6:	9c 93       	st	X, r25
    2fb8:	8e 93       	st	-X, r24
    2fba:	82 81       	ldd	r24, Z+2	; 0x02
    2fbc:	93 81       	ldd	r25, Z+3	; 0x03
    2fbe:	13 96       	adiw	r26, 0x03	; 3
    2fc0:	9c 93       	st	X, r25
    2fc2:	8e 93       	st	-X, r24
    2fc4:	12 97       	sbiw	r26, 0x02	; 2
    2fc6:	e0 e0       	ldi	r30, 0x00	; 0
    2fc8:	f0 e0       	ldi	r31, 0x00	; 0
    2fca:	d8 01       	movw	r26, r16
    2fcc:	12 96       	adiw	r26, 0x02	; 2
    2fce:	8d 91       	ld	r24, X+
    2fd0:	9c 91       	ld	r25, X
    2fd2:	13 97       	sbiw	r26, 0x03	; 3
    2fd4:	00 97       	sbiw	r24, 0x00	; 0
    2fd6:	19 f0       	breq	.+6      	; 0x2fde <free+0xf0>
    2fd8:	f8 01       	movw	r30, r16
    2fda:	8c 01       	movw	r16, r24
    2fdc:	f6 cf       	rjmp	.-20     	; 0x2fca <free+0xdc>
    2fde:	8d 91       	ld	r24, X+
    2fe0:	9c 91       	ld	r25, X
    2fe2:	98 01       	movw	r18, r16
    2fe4:	2e 5f       	subi	r18, 0xFE	; 254
    2fe6:	3f 4f       	sbci	r19, 0xFF	; 255
    2fe8:	82 0f       	add	r24, r18
    2fea:	93 1f       	adc	r25, r19
    2fec:	20 91 38 03 	lds	r18, 0x0338	; 0x800338 <__brkval>
    2ff0:	30 91 39 03 	lds	r19, 0x0339	; 0x800339 <__brkval+0x1>
    2ff4:	28 17       	cp	r18, r24
    2ff6:	39 07       	cpc	r19, r25
    2ff8:	69 f4       	brne	.+26     	; 0x3014 <free+0x126>
    2ffa:	30 97       	sbiw	r30, 0x00	; 0
    2ffc:	29 f4       	brne	.+10     	; 0x3008 <free+0x11a>
    2ffe:	10 92 3b 03 	sts	0x033B, r1	; 0x80033b <__flp+0x1>
    3002:	10 92 3a 03 	sts	0x033A, r1	; 0x80033a <__flp>
    3006:	02 c0       	rjmp	.+4      	; 0x300c <free+0x11e>
    3008:	13 82       	std	Z+3, r1	; 0x03
    300a:	12 82       	std	Z+2, r1	; 0x02
    300c:	10 93 39 03 	sts	0x0339, r17	; 0x800339 <__brkval+0x1>
    3010:	00 93 38 03 	sts	0x0338, r16	; 0x800338 <__brkval>
    3014:	df 91       	pop	r29
    3016:	cf 91       	pop	r28
    3018:	1f 91       	pop	r17
    301a:	0f 91       	pop	r16
    301c:	08 95       	ret

0000301e <realloc>:
    301e:	a0 e0       	ldi	r26, 0x00	; 0
    3020:	b0 e0       	ldi	r27, 0x00	; 0
    3022:	e4 e1       	ldi	r30, 0x14	; 20
    3024:	f8 e1       	ldi	r31, 0x18	; 24
    3026:	78 c3       	rjmp	.+1776   	; 0x3718 <__prologue_saves__+0x8>
    3028:	ec 01       	movw	r28, r24
    302a:	00 97       	sbiw	r24, 0x00	; 0
    302c:	19 f4       	brne	.+6      	; 0x3034 <realloc+0x16>
    302e:	cb 01       	movw	r24, r22
    3030:	c9 de       	rcall	.-622    	; 0x2dc4 <malloc>
    3032:	b4 c0       	rjmp	.+360    	; 0x319c <realloc+0x17e>
    3034:	fc 01       	movw	r30, r24
    3036:	e6 0f       	add	r30, r22
    3038:	f7 1f       	adc	r31, r23
    303a:	9c 01       	movw	r18, r24
    303c:	22 50       	subi	r18, 0x02	; 2
    303e:	31 09       	sbc	r19, r1
    3040:	e2 17       	cp	r30, r18
    3042:	f3 07       	cpc	r31, r19
    3044:	08 f4       	brcc	.+2      	; 0x3048 <realloc+0x2a>
    3046:	a8 c0       	rjmp	.+336    	; 0x3198 <realloc+0x17a>
    3048:	d9 01       	movw	r26, r18
    304a:	0d 91       	ld	r16, X+
    304c:	1c 91       	ld	r17, X
    304e:	11 97       	sbiw	r26, 0x01	; 1
    3050:	06 17       	cp	r16, r22
    3052:	17 07       	cpc	r17, r23
    3054:	a8 f0       	brcs	.+42     	; 0x3080 <realloc+0x62>
    3056:	05 30       	cpi	r16, 0x05	; 5
    3058:	11 05       	cpc	r17, r1
    305a:	08 f4       	brcc	.+2      	; 0x305e <realloc+0x40>
    305c:	9b c0       	rjmp	.+310    	; 0x3194 <realloc+0x176>
    305e:	c8 01       	movw	r24, r16
    3060:	04 97       	sbiw	r24, 0x04	; 4
    3062:	86 17       	cp	r24, r22
    3064:	97 07       	cpc	r25, r23
    3066:	08 f4       	brcc	.+2      	; 0x306a <realloc+0x4c>
    3068:	95 c0       	rjmp	.+298    	; 0x3194 <realloc+0x176>
    306a:	02 50       	subi	r16, 0x02	; 2
    306c:	11 09       	sbc	r17, r1
    306e:	06 1b       	sub	r16, r22
    3070:	17 0b       	sbc	r17, r23
    3072:	01 93       	st	Z+, r16
    3074:	11 93       	st	Z+, r17
    3076:	6d 93       	st	X+, r22
    3078:	7c 93       	st	X, r23
    307a:	cf 01       	movw	r24, r30
    307c:	38 df       	rcall	.-400    	; 0x2eee <free>
    307e:	8a c0       	rjmp	.+276    	; 0x3194 <realloc+0x176>
    3080:	5b 01       	movw	r10, r22
    3082:	a0 1a       	sub	r10, r16
    3084:	b1 0a       	sbc	r11, r17
    3086:	4c 01       	movw	r8, r24
    3088:	80 0e       	add	r8, r16
    308a:	91 1e       	adc	r9, r17
    308c:	a0 91 3a 03 	lds	r26, 0x033A	; 0x80033a <__flp>
    3090:	b0 91 3b 03 	lds	r27, 0x033B	; 0x80033b <__flp+0x1>
    3094:	40 e0       	ldi	r20, 0x00	; 0
    3096:	50 e0       	ldi	r21, 0x00	; 0
    3098:	e1 2c       	mov	r14, r1
    309a:	f1 2c       	mov	r15, r1
    309c:	10 97       	sbiw	r26, 0x00	; 0
    309e:	09 f4       	brne	.+2      	; 0x30a2 <realloc+0x84>
    30a0:	4a c0       	rjmp	.+148    	; 0x3136 <realloc+0x118>
    30a2:	a8 15       	cp	r26, r8
    30a4:	b9 05       	cpc	r27, r9
    30a6:	d1 f5       	brne	.+116    	; 0x311c <realloc+0xfe>
    30a8:	6d 90       	ld	r6, X+
    30aa:	7c 90       	ld	r7, X
    30ac:	11 97       	sbiw	r26, 0x01	; 1
    30ae:	63 01       	movw	r12, r6
    30b0:	82 e0       	ldi	r24, 0x02	; 2
    30b2:	c8 0e       	add	r12, r24
    30b4:	d1 1c       	adc	r13, r1
    30b6:	ca 14       	cp	r12, r10
    30b8:	db 04       	cpc	r13, r11
    30ba:	80 f1       	brcs	.+96     	; 0x311c <realloc+0xfe>
    30bc:	a3 01       	movw	r20, r6
    30be:	4a 19       	sub	r20, r10
    30c0:	5b 09       	sbc	r21, r11
    30c2:	6a 01       	movw	r12, r20
    30c4:	82 e0       	ldi	r24, 0x02	; 2
    30c6:	c8 0e       	add	r12, r24
    30c8:	d1 1c       	adc	r13, r1
    30ca:	12 96       	adiw	r26, 0x02	; 2
    30cc:	bc 90       	ld	r11, X
    30ce:	12 97       	sbiw	r26, 0x02	; 2
    30d0:	13 96       	adiw	r26, 0x03	; 3
    30d2:	ac 91       	ld	r26, X
    30d4:	b5 e0       	ldi	r27, 0x05	; 5
    30d6:	cb 16       	cp	r12, r27
    30d8:	d1 04       	cpc	r13, r1
    30da:	40 f0       	brcs	.+16     	; 0x30ec <realloc+0xce>
    30dc:	b2 82       	std	Z+2, r11	; 0x02
    30de:	a3 83       	std	Z+3, r26	; 0x03
    30e0:	51 83       	std	Z+1, r21	; 0x01
    30e2:	40 83       	st	Z, r20
    30e4:	d9 01       	movw	r26, r18
    30e6:	6d 93       	st	X+, r22
    30e8:	7c 93       	st	X, r23
    30ea:	0a c0       	rjmp	.+20     	; 0x3100 <realloc+0xe2>
    30ec:	0e 5f       	subi	r16, 0xFE	; 254
    30ee:	1f 4f       	sbci	r17, 0xFF	; 255
    30f0:	c3 01       	movw	r24, r6
    30f2:	80 0f       	add	r24, r16
    30f4:	91 1f       	adc	r25, r17
    30f6:	f9 01       	movw	r30, r18
    30f8:	91 83       	std	Z+1, r25	; 0x01
    30fa:	80 83       	st	Z, r24
    30fc:	eb 2d       	mov	r30, r11
    30fe:	fa 2f       	mov	r31, r26
    3100:	e1 14       	cp	r14, r1
    3102:	f1 04       	cpc	r15, r1
    3104:	31 f0       	breq	.+12     	; 0x3112 <realloc+0xf4>
    3106:	d7 01       	movw	r26, r14
    3108:	13 96       	adiw	r26, 0x03	; 3
    310a:	fc 93       	st	X, r31
    310c:	ee 93       	st	-X, r30
    310e:	12 97       	sbiw	r26, 0x02	; 2
    3110:	41 c0       	rjmp	.+130    	; 0x3194 <realloc+0x176>
    3112:	f0 93 3b 03 	sts	0x033B, r31	; 0x80033b <__flp+0x1>
    3116:	e0 93 3a 03 	sts	0x033A, r30	; 0x80033a <__flp>
    311a:	3c c0       	rjmp	.+120    	; 0x3194 <realloc+0x176>
    311c:	8d 91       	ld	r24, X+
    311e:	9c 91       	ld	r25, X
    3120:	11 97       	sbiw	r26, 0x01	; 1
    3122:	48 17       	cp	r20, r24
    3124:	59 07       	cpc	r21, r25
    3126:	08 f4       	brcc	.+2      	; 0x312a <realloc+0x10c>
    3128:	ac 01       	movw	r20, r24
    312a:	7d 01       	movw	r14, r26
    312c:	12 96       	adiw	r26, 0x02	; 2
    312e:	0d 90       	ld	r0, X+
    3130:	bc 91       	ld	r27, X
    3132:	a0 2d       	mov	r26, r0
    3134:	b3 cf       	rjmp	.-154    	; 0x309c <realloc+0x7e>
    3136:	80 91 38 03 	lds	r24, 0x0338	; 0x800338 <__brkval>
    313a:	90 91 39 03 	lds	r25, 0x0339	; 0x800339 <__brkval+0x1>
    313e:	88 15       	cp	r24, r8
    3140:	99 05       	cpc	r25, r9
    3142:	e1 f4       	brne	.+56     	; 0x317c <realloc+0x15e>
    3144:	46 17       	cp	r20, r22
    3146:	57 07       	cpc	r21, r23
    3148:	c8 f4       	brcc	.+50     	; 0x317c <realloc+0x15e>
    314a:	80 91 00 01 	lds	r24, 0x0100	; 0x800100 <__data_start>
    314e:	90 91 01 01 	lds	r25, 0x0101	; 0x800101 <__data_start+0x1>
    3152:	00 97       	sbiw	r24, 0x00	; 0
    3154:	41 f4       	brne	.+16     	; 0x3166 <realloc+0x148>
    3156:	8d b7       	in	r24, 0x3d	; 61
    3158:	9e b7       	in	r25, 0x3e	; 62
    315a:	40 91 04 01 	lds	r20, 0x0104	; 0x800104 <__malloc_margin>
    315e:	50 91 05 01 	lds	r21, 0x0105	; 0x800105 <__malloc_margin+0x1>
    3162:	84 1b       	sub	r24, r20
    3164:	95 0b       	sbc	r25, r21
    3166:	e8 17       	cp	r30, r24
    3168:	f9 07       	cpc	r31, r25
    316a:	b0 f4       	brcc	.+44     	; 0x3198 <realloc+0x17a>
    316c:	f0 93 39 03 	sts	0x0339, r31	; 0x800339 <__brkval+0x1>
    3170:	e0 93 38 03 	sts	0x0338, r30	; 0x800338 <__brkval>
    3174:	f9 01       	movw	r30, r18
    3176:	71 83       	std	Z+1, r23	; 0x01
    3178:	60 83       	st	Z, r22
    317a:	0c c0       	rjmp	.+24     	; 0x3194 <realloc+0x176>
    317c:	cb 01       	movw	r24, r22
    317e:	22 de       	rcall	.-956    	; 0x2dc4 <malloc>
    3180:	7c 01       	movw	r14, r24
    3182:	00 97       	sbiw	r24, 0x00	; 0
    3184:	49 f0       	breq	.+18     	; 0x3198 <realloc+0x17a>
    3186:	a8 01       	movw	r20, r16
    3188:	be 01       	movw	r22, r28
    318a:	0c d0       	rcall	.+24     	; 0x31a4 <memcpy>
    318c:	ce 01       	movw	r24, r28
    318e:	af de       	rcall	.-674    	; 0x2eee <free>
    3190:	c7 01       	movw	r24, r14
    3192:	04 c0       	rjmp	.+8      	; 0x319c <realloc+0x17e>
    3194:	ce 01       	movw	r24, r28
    3196:	02 c0       	rjmp	.+4      	; 0x319c <realloc+0x17e>
    3198:	80 e0       	ldi	r24, 0x00	; 0
    319a:	90 e0       	ldi	r25, 0x00	; 0
    319c:	cd b7       	in	r28, 0x3d	; 61
    319e:	de b7       	in	r29, 0x3e	; 62
    31a0:	ee e0       	ldi	r30, 0x0E	; 14
    31a2:	d6 c2       	rjmp	.+1452   	; 0x3750 <__epilogue_restores__+0x8>

000031a4 <memcpy>:
    31a4:	fb 01       	movw	r30, r22
    31a6:	dc 01       	movw	r26, r24
    31a8:	02 c0       	rjmp	.+4      	; 0x31ae <memcpy+0xa>
    31aa:	01 90       	ld	r0, Z+
    31ac:	0d 92       	st	X+, r0
    31ae:	41 50       	subi	r20, 0x01	; 1
    31b0:	50 40       	sbci	r21, 0x00	; 0
    31b2:	d8 f7       	brcc	.-10     	; 0x31aa <memcpy+0x6>
    31b4:	08 95       	ret

000031b6 <strcpy>:
    31b6:	fb 01       	movw	r30, r22
    31b8:	dc 01       	movw	r26, r24
    31ba:	01 90       	ld	r0, Z+
    31bc:	0d 92       	st	X+, r0
    31be:	00 20       	and	r0, r0
    31c0:	e1 f7       	brne	.-8      	; 0x31ba <strcpy+0x4>
    31c2:	08 95       	ret

000031c4 <strncpy>:
    31c4:	fb 01       	movw	r30, r22
    31c6:	dc 01       	movw	r26, r24
    31c8:	41 50       	subi	r20, 0x01	; 1
    31ca:	50 40       	sbci	r21, 0x00	; 0
    31cc:	48 f0       	brcs	.+18     	; 0x31e0 <strncpy+0x1c>
    31ce:	01 90       	ld	r0, Z+
    31d0:	0d 92       	st	X+, r0
    31d2:	00 20       	and	r0, r0
    31d4:	c9 f7       	brne	.-14     	; 0x31c8 <strncpy+0x4>
    31d6:	01 c0       	rjmp	.+2      	; 0x31da <strncpy+0x16>
    31d8:	1d 92       	st	X+, r1
    31da:	41 50       	subi	r20, 0x01	; 1
    31dc:	50 40       	sbci	r21, 0x00	; 0
    31de:	e0 f7       	brcc	.-8      	; 0x31d8 <strncpy+0x14>
    31e0:	08 95       	ret

000031e2 <sprintf>:
    31e2:	ae e0       	ldi	r26, 0x0E	; 14
    31e4:	b0 e0       	ldi	r27, 0x00	; 0
    31e6:	e6 ef       	ldi	r30, 0xF6	; 246
    31e8:	f8 e1       	ldi	r31, 0x18	; 24
    31ea:	a0 c2       	rjmp	.+1344   	; 0x372c <__prologue_saves__+0x1c>
    31ec:	0d 89       	ldd	r16, Y+21	; 0x15
    31ee:	1e 89       	ldd	r17, Y+22	; 0x16
    31f0:	86 e0       	ldi	r24, 0x06	; 6
    31f2:	8c 83       	std	Y+4, r24	; 0x04
    31f4:	1a 83       	std	Y+2, r17	; 0x02
    31f6:	09 83       	std	Y+1, r16	; 0x01
    31f8:	8f ef       	ldi	r24, 0xFF	; 255
    31fa:	9f e7       	ldi	r25, 0x7F	; 127
    31fc:	9e 83       	std	Y+6, r25	; 0x06
    31fe:	8d 83       	std	Y+5, r24	; 0x05
    3200:	ae 01       	movw	r20, r28
    3202:	47 5e       	subi	r20, 0xE7	; 231
    3204:	5f 4f       	sbci	r21, 0xFF	; 255
    3206:	6f 89       	ldd	r22, Y+23	; 0x17
    3208:	78 8d       	ldd	r23, Y+24	; 0x18
    320a:	ce 01       	movw	r24, r28
    320c:	01 96       	adiw	r24, 0x01	; 1
    320e:	09 d0       	rcall	.+18     	; 0x3222 <vfprintf>
    3210:	2f 81       	ldd	r18, Y+7	; 0x07
    3212:	38 85       	ldd	r19, Y+8	; 0x08
    3214:	f8 01       	movw	r30, r16
    3216:	e2 0f       	add	r30, r18
    3218:	f3 1f       	adc	r31, r19
    321a:	10 82       	st	Z, r1
    321c:	2e 96       	adiw	r28, 0x0e	; 14
    321e:	e4 e0       	ldi	r30, 0x04	; 4
    3220:	a1 c2       	rjmp	.+1346   	; 0x3764 <__epilogue_restores__+0x1c>

00003222 <vfprintf>:
    3222:	ac e0       	ldi	r26, 0x0C	; 12
    3224:	b0 e0       	ldi	r27, 0x00	; 0
    3226:	e6 e1       	ldi	r30, 0x16	; 22
    3228:	f9 e1       	ldi	r31, 0x19	; 25
    322a:	72 c2       	rjmp	.+1252   	; 0x3710 <__prologue_saves__>
    322c:	7c 01       	movw	r14, r24
    322e:	6b 01       	movw	r12, r22
    3230:	8a 01       	movw	r16, r20
    3232:	fc 01       	movw	r30, r24
    3234:	17 82       	std	Z+7, r1	; 0x07
    3236:	16 82       	std	Z+6, r1	; 0x06
    3238:	83 81       	ldd	r24, Z+3	; 0x03
    323a:	81 ff       	sbrs	r24, 1
    323c:	b0 c1       	rjmp	.+864    	; 0x359e <vfprintf+0x37c>
    323e:	ce 01       	movw	r24, r28
    3240:	01 96       	adiw	r24, 0x01	; 1
    3242:	4c 01       	movw	r8, r24
    3244:	f7 01       	movw	r30, r14
    3246:	93 81       	ldd	r25, Z+3	; 0x03
    3248:	f6 01       	movw	r30, r12
    324a:	93 fd       	sbrc	r25, 3
    324c:	85 91       	lpm	r24, Z+
    324e:	93 ff       	sbrs	r25, 3
    3250:	81 91       	ld	r24, Z+
    3252:	6f 01       	movw	r12, r30
    3254:	88 23       	and	r24, r24
    3256:	09 f4       	brne	.+2      	; 0x325a <vfprintf+0x38>
    3258:	9e c1       	rjmp	.+828    	; 0x3596 <vfprintf+0x374>
    325a:	85 32       	cpi	r24, 0x25	; 37
    325c:	39 f4       	brne	.+14     	; 0x326c <vfprintf+0x4a>
    325e:	93 fd       	sbrc	r25, 3
    3260:	85 91       	lpm	r24, Z+
    3262:	93 ff       	sbrs	r25, 3
    3264:	81 91       	ld	r24, Z+
    3266:	6f 01       	movw	r12, r30
    3268:	85 32       	cpi	r24, 0x25	; 37
    326a:	21 f4       	brne	.+8      	; 0x3274 <vfprintf+0x52>
    326c:	b7 01       	movw	r22, r14
    326e:	90 e0       	ldi	r25, 0x00	; 0
    3270:	b1 d1       	rcall	.+866    	; 0x35d4 <fputc>
    3272:	e8 cf       	rjmp	.-48     	; 0x3244 <vfprintf+0x22>
    3274:	51 2c       	mov	r5, r1
    3276:	31 2c       	mov	r3, r1
    3278:	20 e0       	ldi	r18, 0x00	; 0
    327a:	20 32       	cpi	r18, 0x20	; 32
    327c:	a0 f4       	brcc	.+40     	; 0x32a6 <vfprintf+0x84>
    327e:	8b 32       	cpi	r24, 0x2B	; 43
    3280:	69 f0       	breq	.+26     	; 0x329c <vfprintf+0x7a>
    3282:	30 f4       	brcc	.+12     	; 0x3290 <vfprintf+0x6e>
    3284:	80 32       	cpi	r24, 0x20	; 32
    3286:	59 f0       	breq	.+22     	; 0x329e <vfprintf+0x7c>
    3288:	83 32       	cpi	r24, 0x23	; 35
    328a:	69 f4       	brne	.+26     	; 0x32a6 <vfprintf+0x84>
    328c:	20 61       	ori	r18, 0x10	; 16
    328e:	2c c0       	rjmp	.+88     	; 0x32e8 <vfprintf+0xc6>
    3290:	8d 32       	cpi	r24, 0x2D	; 45
    3292:	39 f0       	breq	.+14     	; 0x32a2 <vfprintf+0x80>
    3294:	80 33       	cpi	r24, 0x30	; 48
    3296:	39 f4       	brne	.+14     	; 0x32a6 <vfprintf+0x84>
    3298:	21 60       	ori	r18, 0x01	; 1
    329a:	26 c0       	rjmp	.+76     	; 0x32e8 <vfprintf+0xc6>
    329c:	22 60       	ori	r18, 0x02	; 2
    329e:	24 60       	ori	r18, 0x04	; 4
    32a0:	23 c0       	rjmp	.+70     	; 0x32e8 <vfprintf+0xc6>
    32a2:	28 60       	ori	r18, 0x08	; 8
    32a4:	21 c0       	rjmp	.+66     	; 0x32e8 <vfprintf+0xc6>
    32a6:	27 fd       	sbrc	r18, 7
    32a8:	27 c0       	rjmp	.+78     	; 0x32f8 <vfprintf+0xd6>
    32aa:	30 ed       	ldi	r19, 0xD0	; 208
    32ac:	38 0f       	add	r19, r24
    32ae:	3a 30       	cpi	r19, 0x0A	; 10
    32b0:	78 f4       	brcc	.+30     	; 0x32d0 <vfprintf+0xae>
    32b2:	26 ff       	sbrs	r18, 6
    32b4:	06 c0       	rjmp	.+12     	; 0x32c2 <vfprintf+0xa0>
    32b6:	fa e0       	ldi	r31, 0x0A	; 10
    32b8:	5f 9e       	mul	r5, r31
    32ba:	30 0d       	add	r19, r0
    32bc:	11 24       	eor	r1, r1
    32be:	53 2e       	mov	r5, r19
    32c0:	13 c0       	rjmp	.+38     	; 0x32e8 <vfprintf+0xc6>
    32c2:	8a e0       	ldi	r24, 0x0A	; 10
    32c4:	38 9e       	mul	r3, r24
    32c6:	30 0d       	add	r19, r0
    32c8:	11 24       	eor	r1, r1
    32ca:	33 2e       	mov	r3, r19
    32cc:	20 62       	ori	r18, 0x20	; 32
    32ce:	0c c0       	rjmp	.+24     	; 0x32e8 <vfprintf+0xc6>
    32d0:	8e 32       	cpi	r24, 0x2E	; 46
    32d2:	21 f4       	brne	.+8      	; 0x32dc <vfprintf+0xba>
    32d4:	26 fd       	sbrc	r18, 6
    32d6:	5f c1       	rjmp	.+702    	; 0x3596 <vfprintf+0x374>
    32d8:	20 64       	ori	r18, 0x40	; 64
    32da:	06 c0       	rjmp	.+12     	; 0x32e8 <vfprintf+0xc6>
    32dc:	8c 36       	cpi	r24, 0x6C	; 108
    32de:	11 f4       	brne	.+4      	; 0x32e4 <vfprintf+0xc2>
    32e0:	20 68       	ori	r18, 0x80	; 128
    32e2:	02 c0       	rjmp	.+4      	; 0x32e8 <vfprintf+0xc6>
    32e4:	88 36       	cpi	r24, 0x68	; 104
    32e6:	41 f4       	brne	.+16     	; 0x32f8 <vfprintf+0xd6>
    32e8:	f6 01       	movw	r30, r12
    32ea:	93 fd       	sbrc	r25, 3
    32ec:	85 91       	lpm	r24, Z+
    32ee:	93 ff       	sbrs	r25, 3
    32f0:	81 91       	ld	r24, Z+
    32f2:	6f 01       	movw	r12, r30
    32f4:	81 11       	cpse	r24, r1
    32f6:	c1 cf       	rjmp	.-126    	; 0x327a <vfprintf+0x58>
    32f8:	98 2f       	mov	r25, r24
    32fa:	9f 7d       	andi	r25, 0xDF	; 223
    32fc:	95 54       	subi	r25, 0x45	; 69
    32fe:	93 30       	cpi	r25, 0x03	; 3
    3300:	28 f4       	brcc	.+10     	; 0x330c <vfprintf+0xea>
    3302:	0c 5f       	subi	r16, 0xFC	; 252
    3304:	1f 4f       	sbci	r17, 0xFF	; 255
    3306:	ff e3       	ldi	r31, 0x3F	; 63
    3308:	f9 83       	std	Y+1, r31	; 0x01
    330a:	0d c0       	rjmp	.+26     	; 0x3326 <vfprintf+0x104>
    330c:	83 36       	cpi	r24, 0x63	; 99
    330e:	31 f0       	breq	.+12     	; 0x331c <vfprintf+0xfa>
    3310:	83 37       	cpi	r24, 0x73	; 115
    3312:	71 f0       	breq	.+28     	; 0x3330 <vfprintf+0x10e>
    3314:	83 35       	cpi	r24, 0x53	; 83
    3316:	09 f0       	breq	.+2      	; 0x331a <vfprintf+0xf8>
    3318:	57 c0       	rjmp	.+174    	; 0x33c8 <vfprintf+0x1a6>
    331a:	21 c0       	rjmp	.+66     	; 0x335e <vfprintf+0x13c>
    331c:	f8 01       	movw	r30, r16
    331e:	80 81       	ld	r24, Z
    3320:	89 83       	std	Y+1, r24	; 0x01
    3322:	0e 5f       	subi	r16, 0xFE	; 254
    3324:	1f 4f       	sbci	r17, 0xFF	; 255
    3326:	44 24       	eor	r4, r4
    3328:	43 94       	inc	r4
    332a:	51 2c       	mov	r5, r1
    332c:	54 01       	movw	r10, r8
    332e:	14 c0       	rjmp	.+40     	; 0x3358 <vfprintf+0x136>
    3330:	38 01       	movw	r6, r16
    3332:	f2 e0       	ldi	r31, 0x02	; 2
    3334:	6f 0e       	add	r6, r31
    3336:	71 1c       	adc	r7, r1
    3338:	f8 01       	movw	r30, r16
    333a:	a0 80       	ld	r10, Z
    333c:	b1 80       	ldd	r11, Z+1	; 0x01
    333e:	26 ff       	sbrs	r18, 6
    3340:	03 c0       	rjmp	.+6      	; 0x3348 <vfprintf+0x126>
    3342:	65 2d       	mov	r22, r5
    3344:	70 e0       	ldi	r23, 0x00	; 0
    3346:	02 c0       	rjmp	.+4      	; 0x334c <vfprintf+0x12a>
    3348:	6f ef       	ldi	r22, 0xFF	; 255
    334a:	7f ef       	ldi	r23, 0xFF	; 255
    334c:	c5 01       	movw	r24, r10
    334e:	2c 87       	std	Y+12, r18	; 0x0c
    3350:	36 d1       	rcall	.+620    	; 0x35be <strnlen>
    3352:	2c 01       	movw	r4, r24
    3354:	83 01       	movw	r16, r6
    3356:	2c 85       	ldd	r18, Y+12	; 0x0c
    3358:	2f 77       	andi	r18, 0x7F	; 127
    335a:	22 2e       	mov	r2, r18
    335c:	16 c0       	rjmp	.+44     	; 0x338a <vfprintf+0x168>
    335e:	38 01       	movw	r6, r16
    3360:	f2 e0       	ldi	r31, 0x02	; 2
    3362:	6f 0e       	add	r6, r31
    3364:	71 1c       	adc	r7, r1
    3366:	f8 01       	movw	r30, r16
    3368:	a0 80       	ld	r10, Z
    336a:	b1 80       	ldd	r11, Z+1	; 0x01
    336c:	26 ff       	sbrs	r18, 6
    336e:	03 c0       	rjmp	.+6      	; 0x3376 <vfprintf+0x154>
    3370:	65 2d       	mov	r22, r5
    3372:	70 e0       	ldi	r23, 0x00	; 0
    3374:	02 c0       	rjmp	.+4      	; 0x337a <vfprintf+0x158>
    3376:	6f ef       	ldi	r22, 0xFF	; 255
    3378:	7f ef       	ldi	r23, 0xFF	; 255
    337a:	c5 01       	movw	r24, r10
    337c:	2c 87       	std	Y+12, r18	; 0x0c
    337e:	14 d1       	rcall	.+552    	; 0x35a8 <strnlen_P>
    3380:	2c 01       	movw	r4, r24
    3382:	2c 85       	ldd	r18, Y+12	; 0x0c
    3384:	20 68       	ori	r18, 0x80	; 128
    3386:	22 2e       	mov	r2, r18
    3388:	83 01       	movw	r16, r6
    338a:	23 fc       	sbrc	r2, 3
    338c:	19 c0       	rjmp	.+50     	; 0x33c0 <vfprintf+0x19e>
    338e:	83 2d       	mov	r24, r3
    3390:	90 e0       	ldi	r25, 0x00	; 0
    3392:	48 16       	cp	r4, r24
    3394:	59 06       	cpc	r5, r25
    3396:	a0 f4       	brcc	.+40     	; 0x33c0 <vfprintf+0x19e>
    3398:	b7 01       	movw	r22, r14
    339a:	80 e2       	ldi	r24, 0x20	; 32
    339c:	90 e0       	ldi	r25, 0x00	; 0
    339e:	1a d1       	rcall	.+564    	; 0x35d4 <fputc>
    33a0:	3a 94       	dec	r3
    33a2:	f5 cf       	rjmp	.-22     	; 0x338e <vfprintf+0x16c>
    33a4:	f5 01       	movw	r30, r10
    33a6:	27 fc       	sbrc	r2, 7
    33a8:	85 91       	lpm	r24, Z+
    33aa:	27 fe       	sbrs	r2, 7
    33ac:	81 91       	ld	r24, Z+
    33ae:	5f 01       	movw	r10, r30
    33b0:	b7 01       	movw	r22, r14
    33b2:	90 e0       	ldi	r25, 0x00	; 0
    33b4:	0f d1       	rcall	.+542    	; 0x35d4 <fputc>
    33b6:	31 10       	cpse	r3, r1
    33b8:	3a 94       	dec	r3
    33ba:	f1 e0       	ldi	r31, 0x01	; 1
    33bc:	4f 1a       	sub	r4, r31
    33be:	51 08       	sbc	r5, r1
    33c0:	41 14       	cp	r4, r1
    33c2:	51 04       	cpc	r5, r1
    33c4:	79 f7       	brne	.-34     	; 0x33a4 <vfprintf+0x182>
    33c6:	de c0       	rjmp	.+444    	; 0x3584 <vfprintf+0x362>
    33c8:	84 36       	cpi	r24, 0x64	; 100
    33ca:	11 f0       	breq	.+4      	; 0x33d0 <vfprintf+0x1ae>
    33cc:	89 36       	cpi	r24, 0x69	; 105
    33ce:	31 f5       	brne	.+76     	; 0x341c <vfprintf+0x1fa>
    33d0:	f8 01       	movw	r30, r16
    33d2:	27 ff       	sbrs	r18, 7
    33d4:	07 c0       	rjmp	.+14     	; 0x33e4 <vfprintf+0x1c2>
    33d6:	60 81       	ld	r22, Z
    33d8:	71 81       	ldd	r23, Z+1	; 0x01
    33da:	82 81       	ldd	r24, Z+2	; 0x02
    33dc:	93 81       	ldd	r25, Z+3	; 0x03
    33de:	0c 5f       	subi	r16, 0xFC	; 252
    33e0:	1f 4f       	sbci	r17, 0xFF	; 255
    33e2:	08 c0       	rjmp	.+16     	; 0x33f4 <vfprintf+0x1d2>
    33e4:	60 81       	ld	r22, Z
    33e6:	71 81       	ldd	r23, Z+1	; 0x01
    33e8:	07 2e       	mov	r0, r23
    33ea:	00 0c       	add	r0, r0
    33ec:	88 0b       	sbc	r24, r24
    33ee:	99 0b       	sbc	r25, r25
    33f0:	0e 5f       	subi	r16, 0xFE	; 254
    33f2:	1f 4f       	sbci	r17, 0xFF	; 255
    33f4:	2f 76       	andi	r18, 0x6F	; 111
    33f6:	72 2e       	mov	r7, r18
    33f8:	97 ff       	sbrs	r25, 7
    33fa:	09 c0       	rjmp	.+18     	; 0x340e <vfprintf+0x1ec>
    33fc:	90 95       	com	r25
    33fe:	80 95       	com	r24
    3400:	70 95       	com	r23
    3402:	61 95       	neg	r22
    3404:	7f 4f       	sbci	r23, 0xFF	; 255
    3406:	8f 4f       	sbci	r24, 0xFF	; 255
    3408:	9f 4f       	sbci	r25, 0xFF	; 255
    340a:	20 68       	ori	r18, 0x80	; 128
    340c:	72 2e       	mov	r7, r18
    340e:	2a e0       	ldi	r18, 0x0A	; 10
    3410:	30 e0       	ldi	r19, 0x00	; 0
    3412:	a4 01       	movw	r20, r8
    3414:	17 d1       	rcall	.+558    	; 0x3644 <__ultoa_invert>
    3416:	a8 2e       	mov	r10, r24
    3418:	a8 18       	sub	r10, r8
    341a:	43 c0       	rjmp	.+134    	; 0x34a2 <vfprintf+0x280>
    341c:	85 37       	cpi	r24, 0x75	; 117
    341e:	29 f4       	brne	.+10     	; 0x342a <vfprintf+0x208>
    3420:	2f 7e       	andi	r18, 0xEF	; 239
    3422:	b2 2e       	mov	r11, r18
    3424:	2a e0       	ldi	r18, 0x0A	; 10
    3426:	30 e0       	ldi	r19, 0x00	; 0
    3428:	25 c0       	rjmp	.+74     	; 0x3474 <vfprintf+0x252>
    342a:	f2 2f       	mov	r31, r18
    342c:	f9 7f       	andi	r31, 0xF9	; 249
    342e:	bf 2e       	mov	r11, r31
    3430:	8f 36       	cpi	r24, 0x6F	; 111
    3432:	c1 f0       	breq	.+48     	; 0x3464 <vfprintf+0x242>
    3434:	18 f4       	brcc	.+6      	; 0x343c <vfprintf+0x21a>
    3436:	88 35       	cpi	r24, 0x58	; 88
    3438:	79 f0       	breq	.+30     	; 0x3458 <vfprintf+0x236>
    343a:	ad c0       	rjmp	.+346    	; 0x3596 <vfprintf+0x374>
    343c:	80 37       	cpi	r24, 0x70	; 112
    343e:	19 f0       	breq	.+6      	; 0x3446 <vfprintf+0x224>
    3440:	88 37       	cpi	r24, 0x78	; 120
    3442:	21 f0       	breq	.+8      	; 0x344c <vfprintf+0x22a>
    3444:	a8 c0       	rjmp	.+336    	; 0x3596 <vfprintf+0x374>
    3446:	2f 2f       	mov	r18, r31
    3448:	20 61       	ori	r18, 0x10	; 16
    344a:	b2 2e       	mov	r11, r18
    344c:	b4 fe       	sbrs	r11, 4
    344e:	0d c0       	rjmp	.+26     	; 0x346a <vfprintf+0x248>
    3450:	8b 2d       	mov	r24, r11
    3452:	84 60       	ori	r24, 0x04	; 4
    3454:	b8 2e       	mov	r11, r24
    3456:	09 c0       	rjmp	.+18     	; 0x346a <vfprintf+0x248>
    3458:	24 ff       	sbrs	r18, 4
    345a:	0a c0       	rjmp	.+20     	; 0x3470 <vfprintf+0x24e>
    345c:	9f 2f       	mov	r25, r31
    345e:	96 60       	ori	r25, 0x06	; 6
    3460:	b9 2e       	mov	r11, r25
    3462:	06 c0       	rjmp	.+12     	; 0x3470 <vfprintf+0x24e>
    3464:	28 e0       	ldi	r18, 0x08	; 8
    3466:	30 e0       	ldi	r19, 0x00	; 0
    3468:	05 c0       	rjmp	.+10     	; 0x3474 <vfprintf+0x252>
    346a:	20 e1       	ldi	r18, 0x10	; 16
    346c:	30 e0       	ldi	r19, 0x00	; 0
    346e:	02 c0       	rjmp	.+4      	; 0x3474 <vfprintf+0x252>
    3470:	20 e1       	ldi	r18, 0x10	; 16
    3472:	32 e0       	ldi	r19, 0x02	; 2
    3474:	f8 01       	movw	r30, r16
    3476:	b7 fe       	sbrs	r11, 7
    3478:	07 c0       	rjmp	.+14     	; 0x3488 <vfprintf+0x266>
    347a:	60 81       	ld	r22, Z
    347c:	71 81       	ldd	r23, Z+1	; 0x01
    347e:	82 81       	ldd	r24, Z+2	; 0x02
    3480:	93 81       	ldd	r25, Z+3	; 0x03
    3482:	0c 5f       	subi	r16, 0xFC	; 252
    3484:	1f 4f       	sbci	r17, 0xFF	; 255
    3486:	06 c0       	rjmp	.+12     	; 0x3494 <vfprintf+0x272>
    3488:	60 81       	ld	r22, Z
    348a:	71 81       	ldd	r23, Z+1	; 0x01
    348c:	80 e0       	ldi	r24, 0x00	; 0
    348e:	90 e0       	ldi	r25, 0x00	; 0
    3490:	0e 5f       	subi	r16, 0xFE	; 254
    3492:	1f 4f       	sbci	r17, 0xFF	; 255
    3494:	a4 01       	movw	r20, r8
    3496:	d6 d0       	rcall	.+428    	; 0x3644 <__ultoa_invert>
    3498:	a8 2e       	mov	r10, r24
    349a:	a8 18       	sub	r10, r8
    349c:	fb 2d       	mov	r31, r11
    349e:	ff 77       	andi	r31, 0x7F	; 127
    34a0:	7f 2e       	mov	r7, r31
    34a2:	76 fe       	sbrs	r7, 6
    34a4:	0b c0       	rjmp	.+22     	; 0x34bc <vfprintf+0x29a>
    34a6:	37 2d       	mov	r19, r7
    34a8:	3e 7f       	andi	r19, 0xFE	; 254
    34aa:	a5 14       	cp	r10, r5
    34ac:	50 f4       	brcc	.+20     	; 0x34c2 <vfprintf+0x2a0>
    34ae:	74 fe       	sbrs	r7, 4
    34b0:	0a c0       	rjmp	.+20     	; 0x34c6 <vfprintf+0x2a4>
    34b2:	72 fc       	sbrc	r7, 2
    34b4:	08 c0       	rjmp	.+16     	; 0x34c6 <vfprintf+0x2a4>
    34b6:	37 2d       	mov	r19, r7
    34b8:	3e 7e       	andi	r19, 0xEE	; 238
    34ba:	05 c0       	rjmp	.+10     	; 0x34c6 <vfprintf+0x2a4>
    34bc:	ba 2c       	mov	r11, r10
    34be:	37 2d       	mov	r19, r7
    34c0:	03 c0       	rjmp	.+6      	; 0x34c8 <vfprintf+0x2a6>
    34c2:	ba 2c       	mov	r11, r10
    34c4:	01 c0       	rjmp	.+2      	; 0x34c8 <vfprintf+0x2a6>
    34c6:	b5 2c       	mov	r11, r5
    34c8:	34 ff       	sbrs	r19, 4
    34ca:	0d c0       	rjmp	.+26     	; 0x34e6 <vfprintf+0x2c4>
    34cc:	fe 01       	movw	r30, r28
    34ce:	ea 0d       	add	r30, r10
    34d0:	f1 1d       	adc	r31, r1
    34d2:	80 81       	ld	r24, Z
    34d4:	80 33       	cpi	r24, 0x30	; 48
    34d6:	11 f4       	brne	.+4      	; 0x34dc <vfprintf+0x2ba>
    34d8:	39 7e       	andi	r19, 0xE9	; 233
    34da:	09 c0       	rjmp	.+18     	; 0x34ee <vfprintf+0x2cc>
    34dc:	32 ff       	sbrs	r19, 2
    34de:	06 c0       	rjmp	.+12     	; 0x34ec <vfprintf+0x2ca>
    34e0:	b3 94       	inc	r11
    34e2:	b3 94       	inc	r11
    34e4:	04 c0       	rjmp	.+8      	; 0x34ee <vfprintf+0x2cc>
    34e6:	83 2f       	mov	r24, r19
    34e8:	86 78       	andi	r24, 0x86	; 134
    34ea:	09 f0       	breq	.+2      	; 0x34ee <vfprintf+0x2cc>
    34ec:	b3 94       	inc	r11
    34ee:	33 fd       	sbrc	r19, 3
    34f0:	12 c0       	rjmp	.+36     	; 0x3516 <vfprintf+0x2f4>
    34f2:	30 ff       	sbrs	r19, 0
    34f4:	06 c0       	rjmp	.+12     	; 0x3502 <vfprintf+0x2e0>
    34f6:	5a 2c       	mov	r5, r10
    34f8:	b3 14       	cp	r11, r3
    34fa:	18 f4       	brcc	.+6      	; 0x3502 <vfprintf+0x2e0>
    34fc:	53 0c       	add	r5, r3
    34fe:	5b 18       	sub	r5, r11
    3500:	b3 2c       	mov	r11, r3
    3502:	b3 14       	cp	r11, r3
    3504:	60 f4       	brcc	.+24     	; 0x351e <vfprintf+0x2fc>
    3506:	b7 01       	movw	r22, r14
    3508:	80 e2       	ldi	r24, 0x20	; 32
    350a:	90 e0       	ldi	r25, 0x00	; 0
    350c:	3c 87       	std	Y+12, r19	; 0x0c
    350e:	62 d0       	rcall	.+196    	; 0x35d4 <fputc>
    3510:	b3 94       	inc	r11
    3512:	3c 85       	ldd	r19, Y+12	; 0x0c
    3514:	f6 cf       	rjmp	.-20     	; 0x3502 <vfprintf+0x2e0>
    3516:	b3 14       	cp	r11, r3
    3518:	10 f4       	brcc	.+4      	; 0x351e <vfprintf+0x2fc>
    351a:	3b 18       	sub	r3, r11
    351c:	01 c0       	rjmp	.+2      	; 0x3520 <vfprintf+0x2fe>
    351e:	31 2c       	mov	r3, r1
    3520:	34 ff       	sbrs	r19, 4
    3522:	11 c0       	rjmp	.+34     	; 0x3546 <vfprintf+0x324>
    3524:	b7 01       	movw	r22, r14
    3526:	80 e3       	ldi	r24, 0x30	; 48
    3528:	90 e0       	ldi	r25, 0x00	; 0
    352a:	3c 87       	std	Y+12, r19	; 0x0c
    352c:	53 d0       	rcall	.+166    	; 0x35d4 <fputc>
    352e:	3c 85       	ldd	r19, Y+12	; 0x0c
    3530:	32 ff       	sbrs	r19, 2
    3532:	16 c0       	rjmp	.+44     	; 0x3560 <vfprintf+0x33e>
    3534:	31 fd       	sbrc	r19, 1
    3536:	03 c0       	rjmp	.+6      	; 0x353e <vfprintf+0x31c>
    3538:	88 e7       	ldi	r24, 0x78	; 120
    353a:	90 e0       	ldi	r25, 0x00	; 0
    353c:	02 c0       	rjmp	.+4      	; 0x3542 <vfprintf+0x320>
    353e:	88 e5       	ldi	r24, 0x58	; 88
    3540:	90 e0       	ldi	r25, 0x00	; 0
    3542:	b7 01       	movw	r22, r14
    3544:	0c c0       	rjmp	.+24     	; 0x355e <vfprintf+0x33c>
    3546:	83 2f       	mov	r24, r19
    3548:	86 78       	andi	r24, 0x86	; 134
    354a:	51 f0       	breq	.+20     	; 0x3560 <vfprintf+0x33e>
    354c:	31 ff       	sbrs	r19, 1
    354e:	02 c0       	rjmp	.+4      	; 0x3554 <vfprintf+0x332>
    3550:	8b e2       	ldi	r24, 0x2B	; 43
    3552:	01 c0       	rjmp	.+2      	; 0x3556 <vfprintf+0x334>
    3554:	80 e2       	ldi	r24, 0x20	; 32
    3556:	37 fd       	sbrc	r19, 7
    3558:	8d e2       	ldi	r24, 0x2D	; 45
    355a:	b7 01       	movw	r22, r14
    355c:	90 e0       	ldi	r25, 0x00	; 0
    355e:	3a d0       	rcall	.+116    	; 0x35d4 <fputc>
    3560:	a5 14       	cp	r10, r5
    3562:	30 f4       	brcc	.+12     	; 0x3570 <vfprintf+0x34e>
    3564:	b7 01       	movw	r22, r14
    3566:	80 e3       	ldi	r24, 0x30	; 48
    3568:	90 e0       	ldi	r25, 0x00	; 0
    356a:	34 d0       	rcall	.+104    	; 0x35d4 <fputc>
    356c:	5a 94       	dec	r5
    356e:	f8 cf       	rjmp	.-16     	; 0x3560 <vfprintf+0x33e>
    3570:	aa 94       	dec	r10
    3572:	f4 01       	movw	r30, r8
    3574:	ea 0d       	add	r30, r10
    3576:	f1 1d       	adc	r31, r1
    3578:	80 81       	ld	r24, Z
    357a:	b7 01       	movw	r22, r14
    357c:	90 e0       	ldi	r25, 0x00	; 0
    357e:	2a d0       	rcall	.+84     	; 0x35d4 <fputc>
    3580:	a1 10       	cpse	r10, r1
    3582:	f6 cf       	rjmp	.-20     	; 0x3570 <vfprintf+0x34e>
    3584:	33 20       	and	r3, r3
    3586:	09 f4       	brne	.+2      	; 0x358a <vfprintf+0x368>
    3588:	5d ce       	rjmp	.-838    	; 0x3244 <vfprintf+0x22>
    358a:	b7 01       	movw	r22, r14
    358c:	80 e2       	ldi	r24, 0x20	; 32
    358e:	90 e0       	ldi	r25, 0x00	; 0
    3590:	21 d0       	rcall	.+66     	; 0x35d4 <fputc>
    3592:	3a 94       	dec	r3
    3594:	f7 cf       	rjmp	.-18     	; 0x3584 <vfprintf+0x362>
    3596:	f7 01       	movw	r30, r14
    3598:	86 81       	ldd	r24, Z+6	; 0x06
    359a:	97 81       	ldd	r25, Z+7	; 0x07
    359c:	02 c0       	rjmp	.+4      	; 0x35a2 <vfprintf+0x380>
    359e:	8f ef       	ldi	r24, 0xFF	; 255
    35a0:	9f ef       	ldi	r25, 0xFF	; 255
    35a2:	2c 96       	adiw	r28, 0x0c	; 12
    35a4:	e2 e1       	ldi	r30, 0x12	; 18
    35a6:	d0 c0       	rjmp	.+416    	; 0x3748 <__epilogue_restores__>

000035a8 <strnlen_P>:
    35a8:	fc 01       	movw	r30, r24
    35aa:	05 90       	lpm	r0, Z+
    35ac:	61 50       	subi	r22, 0x01	; 1
    35ae:	70 40       	sbci	r23, 0x00	; 0
    35b0:	01 10       	cpse	r0, r1
    35b2:	d8 f7       	brcc	.-10     	; 0x35aa <strnlen_P+0x2>
    35b4:	80 95       	com	r24
    35b6:	90 95       	com	r25
    35b8:	8e 0f       	add	r24, r30
    35ba:	9f 1f       	adc	r25, r31
    35bc:	08 95       	ret

000035be <strnlen>:
    35be:	fc 01       	movw	r30, r24
    35c0:	61 50       	subi	r22, 0x01	; 1
    35c2:	70 40       	sbci	r23, 0x00	; 0
    35c4:	01 90       	ld	r0, Z+
    35c6:	01 10       	cpse	r0, r1
    35c8:	d8 f7       	brcc	.-10     	; 0x35c0 <strnlen+0x2>
    35ca:	80 95       	com	r24
    35cc:	90 95       	com	r25
    35ce:	8e 0f       	add	r24, r30
    35d0:	9f 1f       	adc	r25, r31
    35d2:	08 95       	ret

000035d4 <fputc>:
    35d4:	0f 93       	push	r16
    35d6:	1f 93       	push	r17
    35d8:	cf 93       	push	r28
    35da:	df 93       	push	r29
    35dc:	fb 01       	movw	r30, r22
    35de:	23 81       	ldd	r18, Z+3	; 0x03
    35e0:	21 fd       	sbrc	r18, 1
    35e2:	03 c0       	rjmp	.+6      	; 0x35ea <fputc+0x16>
    35e4:	8f ef       	ldi	r24, 0xFF	; 255
    35e6:	9f ef       	ldi	r25, 0xFF	; 255
    35e8:	28 c0       	rjmp	.+80     	; 0x363a <fputc+0x66>
    35ea:	22 ff       	sbrs	r18, 2
    35ec:	16 c0       	rjmp	.+44     	; 0x361a <fputc+0x46>
    35ee:	46 81       	ldd	r20, Z+6	; 0x06
    35f0:	57 81       	ldd	r21, Z+7	; 0x07
    35f2:	24 81       	ldd	r18, Z+4	; 0x04
    35f4:	35 81       	ldd	r19, Z+5	; 0x05
    35f6:	42 17       	cp	r20, r18
    35f8:	53 07       	cpc	r21, r19
    35fa:	44 f4       	brge	.+16     	; 0x360c <fputc+0x38>
    35fc:	a0 81       	ld	r26, Z
    35fe:	b1 81       	ldd	r27, Z+1	; 0x01
    3600:	9d 01       	movw	r18, r26
    3602:	2f 5f       	subi	r18, 0xFF	; 255
    3604:	3f 4f       	sbci	r19, 0xFF	; 255
    3606:	31 83       	std	Z+1, r19	; 0x01
    3608:	20 83       	st	Z, r18
    360a:	8c 93       	st	X, r24
    360c:	26 81       	ldd	r18, Z+6	; 0x06
    360e:	37 81       	ldd	r19, Z+7	; 0x07
    3610:	2f 5f       	subi	r18, 0xFF	; 255
    3612:	3f 4f       	sbci	r19, 0xFF	; 255
    3614:	37 83       	std	Z+7, r19	; 0x07
    3616:	26 83       	std	Z+6, r18	; 0x06
    3618:	10 c0       	rjmp	.+32     	; 0x363a <fputc+0x66>
    361a:	eb 01       	movw	r28, r22
    361c:	09 2f       	mov	r16, r25
    361e:	18 2f       	mov	r17, r24
    3620:	00 84       	ldd	r0, Z+8	; 0x08
    3622:	f1 85       	ldd	r31, Z+9	; 0x09
    3624:	e0 2d       	mov	r30, r0
    3626:	09 95       	icall
    3628:	89 2b       	or	r24, r25
    362a:	e1 f6       	brne	.-72     	; 0x35e4 <fputc+0x10>
    362c:	8e 81       	ldd	r24, Y+6	; 0x06
    362e:	9f 81       	ldd	r25, Y+7	; 0x07
    3630:	01 96       	adiw	r24, 0x01	; 1
    3632:	9f 83       	std	Y+7, r25	; 0x07
    3634:	8e 83       	std	Y+6, r24	; 0x06
    3636:	81 2f       	mov	r24, r17
    3638:	90 2f       	mov	r25, r16
    363a:	df 91       	pop	r29
    363c:	cf 91       	pop	r28
    363e:	1f 91       	pop	r17
    3640:	0f 91       	pop	r16
    3642:	08 95       	ret

00003644 <__ultoa_invert>:
    3644:	fa 01       	movw	r30, r20
    3646:	aa 27       	eor	r26, r26
    3648:	28 30       	cpi	r18, 0x08	; 8
    364a:	51 f1       	breq	.+84     	; 0x36a0 <__ultoa_invert+0x5c>
    364c:	20 31       	cpi	r18, 0x10	; 16
    364e:	81 f1       	breq	.+96     	; 0x36b0 <__ultoa_invert+0x6c>
    3650:	e8 94       	clt
    3652:	6f 93       	push	r22
    3654:	6e 7f       	andi	r22, 0xFE	; 254
    3656:	6e 5f       	subi	r22, 0xFE	; 254
    3658:	7f 4f       	sbci	r23, 0xFF	; 255
    365a:	8f 4f       	sbci	r24, 0xFF	; 255
    365c:	9f 4f       	sbci	r25, 0xFF	; 255
    365e:	af 4f       	sbci	r26, 0xFF	; 255
    3660:	b1 e0       	ldi	r27, 0x01	; 1
    3662:	3e d0       	rcall	.+124    	; 0x36e0 <__ultoa_invert+0x9c>
    3664:	b4 e0       	ldi	r27, 0x04	; 4
    3666:	3c d0       	rcall	.+120    	; 0x36e0 <__ultoa_invert+0x9c>
    3668:	67 0f       	add	r22, r23
    366a:	78 1f       	adc	r23, r24
    366c:	89 1f       	adc	r24, r25
    366e:	9a 1f       	adc	r25, r26
    3670:	a1 1d       	adc	r26, r1
    3672:	68 0f       	add	r22, r24
    3674:	79 1f       	adc	r23, r25
    3676:	8a 1f       	adc	r24, r26
    3678:	91 1d       	adc	r25, r1
    367a:	a1 1d       	adc	r26, r1
    367c:	6a 0f       	add	r22, r26
    367e:	71 1d       	adc	r23, r1
    3680:	81 1d       	adc	r24, r1
    3682:	91 1d       	adc	r25, r1
    3684:	a1 1d       	adc	r26, r1
    3686:	20 d0       	rcall	.+64     	; 0x36c8 <__ultoa_invert+0x84>
    3688:	09 f4       	brne	.+2      	; 0x368c <__ultoa_invert+0x48>
    368a:	68 94       	set
    368c:	3f 91       	pop	r19
    368e:	2a e0       	ldi	r18, 0x0A	; 10
    3690:	26 9f       	mul	r18, r22
    3692:	11 24       	eor	r1, r1
    3694:	30 19       	sub	r19, r0
    3696:	30 5d       	subi	r19, 0xD0	; 208
    3698:	31 93       	st	Z+, r19
    369a:	de f6       	brtc	.-74     	; 0x3652 <__ultoa_invert+0xe>
    369c:	cf 01       	movw	r24, r30
    369e:	08 95       	ret
    36a0:	46 2f       	mov	r20, r22
    36a2:	47 70       	andi	r20, 0x07	; 7
    36a4:	40 5d       	subi	r20, 0xD0	; 208
    36a6:	41 93       	st	Z+, r20
    36a8:	b3 e0       	ldi	r27, 0x03	; 3
    36aa:	0f d0       	rcall	.+30     	; 0x36ca <__ultoa_invert+0x86>
    36ac:	c9 f7       	brne	.-14     	; 0x36a0 <__ultoa_invert+0x5c>
    36ae:	f6 cf       	rjmp	.-20     	; 0x369c <__ultoa_invert+0x58>
    36b0:	46 2f       	mov	r20, r22
    36b2:	4f 70       	andi	r20, 0x0F	; 15
    36b4:	40 5d       	subi	r20, 0xD0	; 208
    36b6:	4a 33       	cpi	r20, 0x3A	; 58
    36b8:	18 f0       	brcs	.+6      	; 0x36c0 <__ultoa_invert+0x7c>
    36ba:	49 5d       	subi	r20, 0xD9	; 217
    36bc:	31 fd       	sbrc	r19, 1
    36be:	40 52       	subi	r20, 0x20	; 32
    36c0:	41 93       	st	Z+, r20
    36c2:	02 d0       	rcall	.+4      	; 0x36c8 <__ultoa_invert+0x84>
    36c4:	a9 f7       	brne	.-22     	; 0x36b0 <__ultoa_invert+0x6c>
    36c6:	ea cf       	rjmp	.-44     	; 0x369c <__ultoa_invert+0x58>
    36c8:	b4 e0       	ldi	r27, 0x04	; 4
    36ca:	a6 95       	lsr	r26
    36cc:	97 95       	ror	r25
    36ce:	87 95       	ror	r24
    36d0:	77 95       	ror	r23
    36d2:	67 95       	ror	r22
    36d4:	ba 95       	dec	r27
    36d6:	c9 f7       	brne	.-14     	; 0x36ca <__ultoa_invert+0x86>
    36d8:	00 97       	sbiw	r24, 0x00	; 0
    36da:	61 05       	cpc	r22, r1
    36dc:	71 05       	cpc	r23, r1
    36de:	08 95       	ret
    36e0:	9b 01       	movw	r18, r22
    36e2:	ac 01       	movw	r20, r24
    36e4:	0a 2e       	mov	r0, r26
    36e6:	06 94       	lsr	r0
    36e8:	57 95       	ror	r21
    36ea:	47 95       	ror	r20
    36ec:	37 95       	ror	r19
    36ee:	27 95       	ror	r18
    36f0:	ba 95       	dec	r27
    36f2:	c9 f7       	brne	.-14     	; 0x36e6 <__ultoa_invert+0xa2>
    36f4:	62 0f       	add	r22, r18
    36f6:	73 1f       	adc	r23, r19
    36f8:	84 1f       	adc	r24, r20
    36fa:	95 1f       	adc	r25, r21
    36fc:	a0 1d       	adc	r26, r0
    36fe:	08 95       	ret

00003700 <eeprom_read_byte>:
    3700:	f9 99       	sbic	0x1f, 1	; 31
    3702:	fe cf       	rjmp	.-4      	; 0x3700 <eeprom_read_byte>
    3704:	92 bd       	out	0x22, r25	; 34
    3706:	81 bd       	out	0x21, r24	; 33
    3708:	f8 9a       	sbi	0x1f, 0	; 31
    370a:	99 27       	eor	r25, r25
    370c:	80 b5       	in	r24, 0x20	; 32
    370e:	08 95       	ret

00003710 <__prologue_saves__>:
    3710:	2f 92       	push	r2
    3712:	3f 92       	push	r3
    3714:	4f 92       	push	r4
    3716:	5f 92       	push	r5
    3718:	6f 92       	push	r6
    371a:	7f 92       	push	r7
    371c:	8f 92       	push	r8
    371e:	9f 92       	push	r9
    3720:	af 92       	push	r10
    3722:	bf 92       	push	r11
    3724:	cf 92       	push	r12
    3726:	df 92       	push	r13
    3728:	ef 92       	push	r14
    372a:	ff 92       	push	r15
    372c:	0f 93       	push	r16
    372e:	1f 93       	push	r17
    3730:	cf 93       	push	r28
    3732:	df 93       	push	r29
    3734:	cd b7       	in	r28, 0x3d	; 61
    3736:	de b7       	in	r29, 0x3e	; 62
    3738:	ca 1b       	sub	r28, r26
    373a:	db 0b       	sbc	r29, r27
    373c:	0f b6       	in	r0, 0x3f	; 63
    373e:	f8 94       	cli
    3740:	de bf       	out	0x3e, r29	; 62
    3742:	0f be       	out	0x3f, r0	; 63
    3744:	cd bf       	out	0x3d, r28	; 61
    3746:	09 94       	ijmp

00003748 <__epilogue_restores__>:
    3748:	2a 88       	ldd	r2, Y+18	; 0x12
    374a:	39 88       	ldd	r3, Y+17	; 0x11
    374c:	48 88       	ldd	r4, Y+16	; 0x10
    374e:	5f 84       	ldd	r5, Y+15	; 0x0f
    3750:	6e 84       	ldd	r6, Y+14	; 0x0e
    3752:	7d 84       	ldd	r7, Y+13	; 0x0d
    3754:	8c 84       	ldd	r8, Y+12	; 0x0c
    3756:	9b 84       	ldd	r9, Y+11	; 0x0b
    3758:	aa 84       	ldd	r10, Y+10	; 0x0a
    375a:	b9 84       	ldd	r11, Y+9	; 0x09
    375c:	c8 84       	ldd	r12, Y+8	; 0x08
    375e:	df 80       	ldd	r13, Y+7	; 0x07
    3760:	ee 80       	ldd	r14, Y+6	; 0x06
    3762:	fd 80       	ldd	r15, Y+5	; 0x05
    3764:	0c 81       	ldd	r16, Y+4	; 0x04
    3766:	1b 81       	ldd	r17, Y+3	; 0x03
    3768:	aa 81       	ldd	r26, Y+2	; 0x02
    376a:	b9 81       	ldd	r27, Y+1	; 0x01
    376c:	ce 0f       	add	r28, r30
    376e:	d1 1d       	adc	r29, r1
    3770:	0f b6       	in	r0, 0x3f	; 63
    3772:	f8 94       	cli
    3774:	de bf       	out	0x3e, r29	; 62
    3776:	0f be       	out	0x3f, r0	; 63
    3778:	cd bf       	out	0x3d, r28	; 61
    377a:	ed 01       	movw	r28, r26
    377c:	08 95       	ret

0000377e <_exit>:
    377e:	f8 94       	cli

00003780 <__stop_program>:
    3780:	ff cf       	rjmp	.-2      	; 0x3780 <__stop_program>
